;--------------------------------------------------------
; File Created by SDCC : free open source ANSI-C Compiler
; Version 3.5.0 #9253 (Jun 20 2015) (MINGW32)
; This file was generated Tue Jul 07 18:11:55 2020
;--------------------------------------------------------
; PIC port for the 14-bit core
;--------------------------------------------------------
	.file	"Display.c"
	list	p=16f877a
	radix dec
	include "p16f877a.inc"
;--------------------------------------------------------
; external declarations
;--------------------------------------------------------
	extern	__print_format
	extern	_printf_small
	extern	_printf
	extern	_vprintf
	extern	_sprintf
	extern	_vsprintf
	extern	_puts
	extern	_gets
	extern	_getchar
	extern	_putchar
	extern	_calloc
	extern	_malloc
	extern	_realloc
	extern	_free
	extern	_abs
	extern	_labs
	extern	_atof
	extern	_atoi
	extern	_atol
	extern	__uitoa
	extern	__itoa
	extern	__ultoa
	extern	__ltoa
	extern	_rand
	extern	_srand
	extern	_SSD_Init
	extern	_SSD_Update
	extern	_SSD_SetValue
	extern	_SSD_GetValue
	extern	_SSD_GetState
	extern	_SSD_SetState
	extern	_TMR_Init
	extern	_TMR_Start
	extern	_TMR_CheckOverFlow
	extern	_TMR_Stop
	extern	_TMR_Update
	extern	_SW_Init
	extern	_SW_GetState
	extern	_SW_Update
	extern	_LED_Init
	extern	_LED_SetState
	extern	_LED_GetState
	extern	_LED_Toggle
	extern	_LED_Update
	extern	_Heat_Init
	extern	_Heat_SetState
	extern	_Heat_GetState
	extern	_Heat_Update
	extern	_Cool_Init
	extern	_Cool_SetState
	extern	_Cool_GetState
	extern	_Cool_Update
	extern	_WH_Init
	extern	_WH_GetTemp
	extern	_WH_GetState
	extern	_WH_Set_Temp
	extern	_WH_UsedTemp
	extern	_WH_Update
	extern	_TempS_Init
	extern	_TempS_GetTemp
	extern	_TempS_AvgReadings
	extern	_TempS_ReadDone
	extern	_TempS_CLRReadFlag
	extern	_TempS_Update
	extern	__moduint
	extern	__divuint
	extern	_STATUSbits
	extern	_PORTAbits
	extern	_PORTBbits
	extern	_PORTCbits
	extern	_PORTDbits
	extern	_PORTEbits
	extern	_INTCONbits
	extern	_PIR1bits
	extern	_PIR2bits
	extern	_T1CONbits
	extern	_T2CONbits
	extern	_SSPCONbits
	extern	_CCP1CONbits
	extern	_RCSTAbits
	extern	_CCP2CONbits
	extern	_ADCON0bits
	extern	_OPTION_REGbits
	extern	_TRISAbits
	extern	_TRISBbits
	extern	_TRISCbits
	extern	_TRISDbits
	extern	_TRISEbits
	extern	_PIE1bits
	extern	_PIE2bits
	extern	_PCONbits
	extern	_SSPCON2bits
	extern	_SSPSTATbits
	extern	_TXSTAbits
	extern	_CMCONbits
	extern	_CVRCONbits
	extern	_ADCON1bits
	extern	_EECON1bits
	extern	_Settings
	extern	_INDF
	extern	_TMR0
	extern	_PCL
	extern	_STATUS
	extern	_FSR
	extern	_PORTA
	extern	_PORTB
	extern	_PORTC
	extern	_PORTD
	extern	_PORTE
	extern	_PCLATH
	extern	_INTCON
	extern	_PIR1
	extern	_PIR2
	extern	_TMR1
	extern	_TMR1L
	extern	_TMR1H
	extern	_T1CON
	extern	_TMR2
	extern	_T2CON
	extern	_SSPBUF
	extern	_SSPCON
	extern	_CCPR1
	extern	_CCPR1L
	extern	_CCPR1H
	extern	_CCP1CON
	extern	_RCSTA
	extern	_TXREG
	extern	_RCREG
	extern	_CCPR2
	extern	_CCPR2L
	extern	_CCPR2H
	extern	_CCP2CON
	extern	_ADRESH
	extern	_ADCON0
	extern	_OPTION_REG
	extern	_TRISA
	extern	_TRISB
	extern	_TRISC
	extern	_TRISD
	extern	_TRISE
	extern	_PIE1
	extern	_PIE2
	extern	_PCON
	extern	_SSPCON2
	extern	_PR2
	extern	_SSPADD
	extern	_SSPSTAT
	extern	_TXSTA
	extern	_SPBRG
	extern	_CMCON
	extern	_CVRCON
	extern	_ADRESL
	extern	_ADCON1
	extern	_EEDATA
	extern	_EEADR
	extern	_EEDATH
	extern	_EEADRH
	extern	_EECON1
	extern	_EECON2

	extern PSAVE
	extern SSAVE
	extern WSAVE
	extern STK12
	extern STK11
	extern STK10
	extern STK09
	extern STK08
	extern STK07
	extern STK06
	extern STK05
	extern STK04
	extern STK03
	extern STK02
	extern STK01
	extern STK00
;--------------------------------------------------------
; global declarations
;--------------------------------------------------------
	global	_DISP_Update
	global	_DISP_Init

;--------------------------------------------------------
; global definitions
;--------------------------------------------------------
;--------------------------------------------------------
; absolute symbol definitions
;--------------------------------------------------------
;--------------------------------------------------------
; compiler-defined variables
;--------------------------------------------------------
UDL_Display_0	udata
r0x100E	res	1
r0x1008	res	1
r0x1009	res	1
r0x100A	res	1
r0x100D	res	1
_DISP_Update_DISP_counter_1_75	res	2
_DISP_Update_DISP_Blink_Counter_1_75	res	2
_Disp_ElementsLED_HeatCounter_1_89	res	2
;--------------------------------------------------------
; initialized data
;--------------------------------------------------------

ID_Display_0	idata
_SSD_State
	db	0x00

;--------------------------------------------------------
; overlayable items in internal ram 
;--------------------------------------------------------
;	udata_ovr
;--------------------------------------------------------
; code
;--------------------------------------------------------
code_Display	code
;***
;  pBlock Stats: dbName = C
;***
;entry:  _Disp_PrintTemp	;Function start
; 2 exit points
;has an exit
;functions called:
;   _TempS_GetTemp
;   _WH_GetTemp
;   __moduint
;   _SSD_SetValue
;   _SSD_SetValue
;   __divuint
;   _TempS_GetTemp
;   _WH_GetTemp
;   __moduint
;   _SSD_SetValue
;   _SSD_SetValue
;   __divuint
;9 compiler assigned registers:
;   r0x1008
;   r0x1009
;   r0x100A
;   STK00
;   STK02
;   STK01
;   r0x100B
;   r0x100C
;   r0x100D
;; Starting pCode block
;;; /home/sdcc-builder/build/sdcc-build/orig/sdcc/src/pic14/gen.c:2316:resultRemat *{*
;;; /home/sdcc-builder/build/sdcc-build/orig/sdcc/src/pic14/gen.c:2760:genLabel *{*
;; ***	genLabel  2763
;;; /home/sdcc-builder/build/sdcc-build/orig/sdcc/src/pic14/gen.c:2316:resultRemat *{*
;;; /home/sdcc-builder/build/sdcc-build/orig/sdcc/src/pic14/gen.c:2340:genFunction *{*
;; ***	genFunction  2342 curr label offset=48previous max_key=29 
_Disp_PrintTemp	;Function start
; 2 exit points
;;; /home/sdcc-builder/build/sdcc-build/orig/sdcc/src/pic14/gen.c:2316:resultRemat *{*
;;; /home/sdcc-builder/build/sdcc-build/orig/sdcc/src/pic14/gen.c:6927:genAssign *{*
;; ***	genAssign  6928
;;	694 register type nRegs=2
;; 	line = 6937 result AOP_REG=r0x104E, size=2, left -=-, size=0, right AOP_LIT=0x00, size=2
;; ***	genAssign  7023
;; >>> /home/sdcc-builder/build/sdcc-build/orig/sdcc/src/pic14/gen.c:7035:genAssign
;;	1109 rIdx = r0x104E 
	.line	155; "Display.c"	tWord Temp=0;
	BANKSEL	r0x1008
	CLRF	r0x1008
;; ***	genAssign  7023
;; >>> /home/sdcc-builder/build/sdcc-build/orig/sdcc/src/pic14/gen.c:7035:genAssign
;;	1109 rIdx = r0x104F 
	CLRF	r0x1009
;;; /home/sdcc-builder/build/sdcc-build/orig/sdcc/src/pic14/gen.c:2316:resultRemat *{*
;;; /home/sdcc-builder/build/sdcc-build/orig/sdcc/src/pic14/gen.c:6927:genAssign *{*
;; ***	genAssign  6928
;;	694 register type nRegs=1
;; 	line = 6937 result AOP_REG=r0x1050, size=1, left -=-, size=0, right AOP_LIT=0x00, size=1
;; ***	genAssign  7023
;; >>> /home/sdcc-builder/build/sdcc-build/orig/sdcc/src/pic14/gen.c:7035:genAssign
;;	1109 rIdx = r0x1050 
	.line	157; "Display.c"	tByte FirstSSD=0;
	CLRF	r0x100A
;;; /home/sdcc-builder/build/sdcc-build/orig/sdcc/src/pic14/gen.c:2316:resultRemat *{*
;;; /home/sdcc-builder/build/sdcc-build/orig/sdcc/src/pic14/gen.c:6759:genIfx *{*
;; ***	genIfx  6760
;; ***	aopForSym 315
;;	327 sym->rname = _Settings, size = 1
;; ***	pic14_toBoolean  1515
;; >>> /home/sdcc-builder/build/sdcc-build/orig/sdcc/src/pic14/gen.c:1522:pic14_toBoolean
	.line	159; "Display.c"	if(Settings == WH_NORMAL){
	MOVLW	0x00
;; >>> /home/sdcc-builder/build/sdcc-build/orig/sdcc/src/pic14/gen.c:1533:pic14_toBoolean
;;	1009
;;	1028  _Settings   offset=0
	BANKSEL	_Settings
	IORWF	_Settings,W
;; >>> /home/sdcc-builder/build/sdcc-build/orig/sdcc/src/pic14/gen.c:6808:genIfx
	BTFSS	STATUS,2
;; >>> /home/sdcc-builder/build/sdcc-build/orig/sdcc/src/pic14/gen.c:6809:genIfx
;; ***	popGetLabel  key=4, label offset 81
	GOTO	_00185_DS_
;;; /home/sdcc-builder/build/sdcc-build/orig/sdcc/src/pic14/gen.c:2316:resultRemat *{*
;;; /home/sdcc-builder/build/sdcc-build/orig/sdcc/src/pic14/gen.c:2086:genCall *{*
;; ***	genCall  2088
;;; /home/sdcc-builder/build/sdcc-build/orig/sdcc/src/pic14/gen.c:1801:saveRegisters *{*
;; ***	saveRegisters  1803
;; >>> /home/sdcc-builder/build/sdcc-build/orig/sdcc/src/pic14/gen.c:2173:genCall
	.line	160; "Display.c"	Temp = TempS_GetTemp();
	PAGESEL	_TempS_GetTemp
;; >>> /home/sdcc-builder/build/sdcc-build/orig/sdcc/src/pic14/gen.c:2175:genCall
	CALL	_TempS_GetTemp
;; >>> /home/sdcc-builder/build/sdcc-build/orig/sdcc/src/pic14/gen.c:2181:genCall
	PAGESEL	$
;;	694 register type nRegs=2
;;; /home/sdcc-builder/build/sdcc-build/orig/sdcc/src/pic14/gen.c:1907:assignResultValue *{*
;; ***	assignResultValue  1909
;; 	line = 1911 result -=-, size=0, left AOP_REG=r0x104E, size=2, right -=-, size=0
;; >>> /home/sdcc-builder/build/sdcc-build/orig/sdcc/src/pic14/gen.c:1393:movwf
;;	1109 rIdx = r0x104F 
	BANKSEL	r0x1009
	MOVWF	r0x1009
;; >>> /home/sdcc-builder/build/sdcc-build/orig/sdcc/src/pic14/gen.c:1423:get_returnvalue
;; ***	popRegFromIdx,1042  , rIdx=0x7f
	MOVF	STK00,W
;; >>> /home/sdcc-builder/build/sdcc-build/orig/sdcc/src/pic14/gen.c:1393:movwf
;;	1109 rIdx = r0x104E 
	MOVWF	r0x1008
;; 	2195 left AOP_REG
;;; /home/sdcc-builder/build/sdcc-build/orig/sdcc/src/pic14/gen.c:1845:unsaveRegisters *{*
;; ***	unsaveRegisters  1847
;;; /home/sdcc-builder/build/sdcc-build/orig/sdcc/src/pic14/gen.c:2316:resultRemat *{*
;;; /home/sdcc-builder/build/sdcc-build/orig/sdcc/src/pic14/gen.c:2778:genGoto *{*
;; >>> /home/sdcc-builder/build/sdcc-build/orig/sdcc/src/pic14/gen.c:2780:genGoto
;; ***	popGetLabel  key=9, label offset 81
	GOTO	_00190_DS_
;;; /home/sdcc-builder/build/sdcc-build/orig/sdcc/src/pic14/gen.c:2316:resultRemat *{*
;;; /home/sdcc-builder/build/sdcc-build/orig/sdcc/src/pic14/gen.c:2760:genLabel *{*
;; ***	genLabel  2763
;;; /home/sdcc-builder/build/sdcc-build/orig/sdcc/src/pic14/gen.c:2316:resultRemat *{*
;;; /home/sdcc-builder/build/sdcc-build/orig/sdcc/src/pic14/gen.c:3619:genCmpEq *{*
;; ***	genCmpEq  3620
;; ifx is non-null
;; ***	aopForSym 315
;;	327 sym->rname = _Settings, size = 1
;; 	line = 3631 result AOP_CRY=0x00, size=0, left AOP_DIR=_Settings, size=1, right AOP_LIT=0x01, size=1
;; ***	mov2w  1381  offset=0
;; >>> /home/sdcc-builder/build/sdcc-build/orig/sdcc/src/pic14/gen.c:1386:mov2w
;;	1009
;;	1028  _Settings   offset=0
_00185_DS_
	.line	163; "Display.c"	else if(Settings == WH_SETTING){
	BANKSEL	_Settings
	MOVF	_Settings,W
;; >>> /home/sdcc-builder/build/sdcc-build/orig/sdcc/src/pic14/gen.c:3685:genCmpEq
	XORLW	0x01
;; >>> /home/sdcc-builder/build/sdcc-build/orig/sdcc/src/pic14/gen.c:3687:genCmpEq
	BTFSS	STATUS,2
;; >>> /home/sdcc-builder/build/sdcc-build/orig/sdcc/src/pic14/gen.c:3690:genCmpEq
;; ***	popGetLabel  key=9, label offset 81
	GOTO	_00190_DS_
;;; /home/sdcc-builder/build/sdcc-build/orig/sdcc/src/pic14/gen.c:2316:resultRemat *{*
;;; /home/sdcc-builder/build/sdcc-build/orig/sdcc/src/pic14/gen.c:2316:resultRemat *{*
;;; /home/sdcc-builder/build/sdcc-build/orig/sdcc/src/pic14/gen.c:2086:genCall *{*
;; ***	genCall  2088
;;; /home/sdcc-builder/build/sdcc-build/orig/sdcc/src/pic14/gen.c:1801:saveRegisters *{*
;; ***	saveRegisters  1803
;; >>> /home/sdcc-builder/build/sdcc-build/orig/sdcc/src/pic14/gen.c:2173:genCall
	.line	164; "Display.c"	Temp = WH_GetTemp();
	PAGESEL	_WH_GetTemp
;; >>> /home/sdcc-builder/build/sdcc-build/orig/sdcc/src/pic14/gen.c:2175:genCall
	CALL	_WH_GetTemp
;; >>> /home/sdcc-builder/build/sdcc-build/orig/sdcc/src/pic14/gen.c:2181:genCall
	PAGESEL	$
;;	694 register type nRegs=2
;;; /home/sdcc-builder/build/sdcc-build/orig/sdcc/src/pic14/gen.c:1907:assignResultValue *{*
;; ***	assignResultValue  1909
;; 	line = 1911 result -=-, size=0, left AOP_REG=r0x104E, size=2, right -=-, size=0
;; >>> /home/sdcc-builder/build/sdcc-build/orig/sdcc/src/pic14/gen.c:1393:movwf
;;	1109 rIdx = r0x104F 
	BANKSEL	r0x1009
	MOVWF	r0x1009
;; >>> /home/sdcc-builder/build/sdcc-build/orig/sdcc/src/pic14/gen.c:1423:get_returnvalue
;; ***	popRegFromIdx,1042  , rIdx=0x7f
	MOVF	STK00,W
;; >>> /home/sdcc-builder/build/sdcc-build/orig/sdcc/src/pic14/gen.c:1393:movwf
;;	1109 rIdx = r0x104E 
	MOVWF	r0x1008
;; 	2195 left AOP_REG
;;; /home/sdcc-builder/build/sdcc-build/orig/sdcc/src/pic14/gen.c:1845:unsaveRegisters *{*
;; ***	unsaveRegisters  1847
;;; /home/sdcc-builder/build/sdcc-build/orig/sdcc/src/pic14/gen.c:2316:resultRemat *{*
;;; /home/sdcc-builder/build/sdcc-build/orig/sdcc/src/pic14/gen.c:2760:genLabel *{*
;; ***	genLabel  2763
;;; /home/sdcc-builder/build/sdcc-build/orig/sdcc/src/pic14/gen.c:2316:resultRemat *{*
;;; /home/sdcc-builder/build/sdcc-build/orig/sdcc/src/pic14/gen.c:6759:genIfx *{*
;; ***	genIfx  6760
;;	694 register type nRegs=2
;; ***	pic14_toBoolean  1515
;; >>> /home/sdcc-builder/build/sdcc-build/orig/sdcc/src/pic14/gen.c:1527:pic14_toBoolean
;;	1109 rIdx = r0x104E 
_00190_DS_
	.line	168; "Display.c"	while(Temp>0)
	BANKSEL	r0x1008
	MOVF	r0x1008,W
;; >>> /home/sdcc-builder/build/sdcc-build/orig/sdcc/src/pic14/gen.c:1533:pic14_toBoolean
;;	1109 rIdx = r0x104F 
	IORWF	r0x1009,W
;; >>> /home/sdcc-builder/build/sdcc-build/orig/sdcc/src/pic14/gen.c:6813:genIfx
	BTFSC	STATUS,2
;; >>> /home/sdcc-builder/build/sdcc-build/orig/sdcc/src/pic14/gen.c:6814:genIfx
;; ***	popGetLabel  key=12, label offset 81
	GOTO	_00193_DS_
;;; /home/sdcc-builder/build/sdcc-build/orig/sdcc/src/pic14/gen.c:2316:resultRemat *{*
;;; /home/sdcc-builder/build/sdcc-build/orig/sdcc/src/pic14/gen.c:2316:resultRemat *{*
;;; /home/sdcc-builder/build/sdcc-build/orig/sdcc/src/pic14/gen.c:2316:resultRemat *{*
;;; /home/sdcc-builder/build/sdcc-build/orig/sdcc/src/pic14/gen.c:2086:genCall *{*
;; ***	genCall  2088
;;; /home/sdcc-builder/build/sdcc-build/orig/sdcc/src/pic14/gen.c:1801:saveRegisters *{*
;; ***	saveRegisters  1803
;;	694 register type nRegs=2
;; 	2135 left AOP_LIT
;;; /home/sdcc-builder/build/sdcc-build/orig/sdcc/src/pic14/gen.c:1343:mov2w_op *{*
;; >>> /home/sdcc-builder/build/sdcc-build/orig/sdcc/src/pic14/gen.c:1361:mov2w_op
	.line	170; "Display.c"	rem=Temp%10;
	MOVLW	0x0a
;; 	2135 left AOP_LIT
;; >>> /home/sdcc-builder/build/sdcc-build/orig/sdcc/src/pic14/gen.c:2143:genCall
;; ***	popRegFromIdx,1042  , rIdx=0x7d
	MOVWF	STK02
;;; /home/sdcc-builder/build/sdcc-build/orig/sdcc/src/pic14/gen.c:1343:mov2w_op *{*
;; >>> /home/sdcc-builder/build/sdcc-build/orig/sdcc/src/pic14/gen.c:1361:mov2w_op
	MOVLW	0x00
;;	694 register type nRegs=2
;; 	2135 left AOP_REG
;; >>> /home/sdcc-builder/build/sdcc-build/orig/sdcc/src/pic14/gen.c:2143:genCall
;; ***	popRegFromIdx,1042  , rIdx=0x7e
	MOVWF	STK01
;;; /home/sdcc-builder/build/sdcc-build/orig/sdcc/src/pic14/gen.c:1343:mov2w_op *{*
;; ***	mov2w  1381  offset=0
;; >>> /home/sdcc-builder/build/sdcc-build/orig/sdcc/src/pic14/gen.c:1386:mov2w
;;	1109 rIdx = r0x104E 
	MOVF	r0x1008,W
;; 	2135 left AOP_REG
;; >>> /home/sdcc-builder/build/sdcc-build/orig/sdcc/src/pic14/gen.c:2143:genCall
;; ***	popRegFromIdx,1042  , rIdx=0x7f
	MOVWF	STK00
;;; /home/sdcc-builder/build/sdcc-build/orig/sdcc/src/pic14/gen.c:1343:mov2w_op *{*
;; ***	mov2w  1381  offset=1
;; >>> /home/sdcc-builder/build/sdcc-build/orig/sdcc/src/pic14/gen.c:1386:mov2w
;;	1109 rIdx = r0x104F 
	MOVF	r0x1009,W
;; >>> /home/sdcc-builder/build/sdcc-build/orig/sdcc/src/pic14/gen.c:2173:genCall
	PAGESEL	__moduint
;; >>> /home/sdcc-builder/build/sdcc-build/orig/sdcc/src/pic14/gen.c:2175:genCall
	CALL	__moduint
;; >>> /home/sdcc-builder/build/sdcc-build/orig/sdcc/src/pic14/gen.c:2181:genCall
	PAGESEL	$
;;	694 register type nRegs=2
;;; /home/sdcc-builder/build/sdcc-build/orig/sdcc/src/pic14/gen.c:1907:assignResultValue *{*
;; ***	assignResultValue  1909
;; 	line = 1911 result -=-, size=0, left AOP_REG=r0x1051, size=2, right -=-, size=0
;; >>> /home/sdcc-builder/build/sdcc-build/orig/sdcc/src/pic14/gen.c:1393:movwf
;;	1109 rIdx = r0x1052 
;;1	MOVWF	r0x100B
;; >>> /home/sdcc-builder/build/sdcc-build/orig/sdcc/src/pic14/gen.c:1423:get_returnvalue
;; ***	popRegFromIdx,1042  , rIdx=0x7f
	MOVF	STK00,W
;; >>> /home/sdcc-builder/build/sdcc-build/orig/sdcc/src/pic14/gen.c:1393:movwf
;;	1109 rIdx = r0x1051 
;;1	MOVWF	r0x100C
	BANKSEL	r0x100D
	MOVWF	r0x100D
;;; /home/sdcc-builder/build/sdcc-build/orig/sdcc/src/pic14/gen.c:2316:resultRemat *{*
;;; /home/sdcc-builder/build/sdcc-build/orig/sdcc/src/pic14/gen.c:6759:genIfx *{*
;; ***	genIfx  6760
;;	694 register type nRegs=1
;; ***	pic14_toBoolean  1515
;; >>> /home/sdcc-builder/build/sdcc-build/orig/sdcc/src/pic14/gen.c:1522:pic14_toBoolean
	.line	171; "Display.c"	if(FirstSSD == 0){
	MOVF	r0x100A,W
	BTFSS	STATUS,2
;; >>> /home/sdcc-builder/build/sdcc-build/orig/sdcc/src/pic14/gen.c:6809:genIfx
;; ***	popGetLabel  key=7, label offset 81
	GOTO	_00188_DS_
;;; /home/sdcc-builder/build/sdcc-build/orig/sdcc/src/pic14/gen.c:2316:resultRemat *{*
;;; /home/sdcc-builder/build/sdcc-build/orig/sdcc/src/pic14/gen.c:2316:resultRemat *{*
;;; /home/sdcc-builder/build/sdcc-build/orig/sdcc/src/pic14/gen.c:2316:resultRemat *{*
;;; /home/sdcc-builder/build/sdcc-build/orig/sdcc/src/pic14/gen.c:2086:genCall *{*
;; ***	genCall  2088
;;; /home/sdcc-builder/build/sdcc-build/orig/sdcc/src/pic14/gen.c:1801:saveRegisters *{*
;; ***	saveRegisters  1803
;;	694 register type nRegs=1
;;	694 register type nRegs=1
;; 	2135 left AOP_REG
;;; /home/sdcc-builder/build/sdcc-build/orig/sdcc/src/pic14/gen.c:1343:mov2w_op *{*
;; ***	mov2w  1381  offset=0
;; >>> /home/sdcc-builder/build/sdcc-build/orig/sdcc/src/pic14/gen.c:1386:mov2w
;;	1109 rIdx = r0x1053 
	.line	172; "Display.c"	SSD_SetValue(SSD_TEMP_UNITS, rem);
	MOVF	r0x100D,W
;; 	2135 left AOP_LIT
;; >>> /home/sdcc-builder/build/sdcc-build/orig/sdcc/src/pic14/gen.c:2143:genCall
;; ***	popRegFromIdx,1042  , rIdx=0x7f
	MOVWF	STK00
;;; /home/sdcc-builder/build/sdcc-build/orig/sdcc/src/pic14/gen.c:1343:mov2w_op *{*
;; >>> /home/sdcc-builder/build/sdcc-build/orig/sdcc/src/pic14/gen.c:1361:mov2w_op
	MOVLW	0x00
;; >>> /home/sdcc-builder/build/sdcc-build/orig/sdcc/src/pic14/gen.c:2173:genCall
	PAGESEL	_SSD_SetValue
;; >>> /home/sdcc-builder/build/sdcc-build/orig/sdcc/src/pic14/gen.c:2175:genCall
	CALL	_SSD_SetValue
;; >>> /home/sdcc-builder/build/sdcc-build/orig/sdcc/src/pic14/gen.c:2181:genCall
	PAGESEL	$
;;; /home/sdcc-builder/build/sdcc-build/orig/sdcc/src/pic14/gen.c:1845:unsaveRegisters *{*
;; ***	unsaveRegisters  1847
;;; /home/sdcc-builder/build/sdcc-build/orig/sdcc/src/pic14/gen.c:2316:resultRemat *{*
;;; /home/sdcc-builder/build/sdcc-build/orig/sdcc/src/pic14/gen.c:6927:genAssign *{*
;; ***	genAssign  6928
;;	694 register type nRegs=1
;; 	line = 6937 result AOP_REG=r0x1050, size=1, left -=-, size=0, right AOP_LIT=0x01, size=1
;; ***	genAssign  7023
;; >>> /home/sdcc-builder/build/sdcc-build/orig/sdcc/src/pic14/gen.c:7030:genAssign
	.line	173; "Display.c"	FirstSSD = 1;
	MOVLW	0x01
;; >>> /home/sdcc-builder/build/sdcc-build/orig/sdcc/src/pic14/gen.c:7032:genAssign
;;	1109 rIdx = r0x1050 
	BANKSEL	r0x100A
	MOVWF	r0x100A
;;; /home/sdcc-builder/build/sdcc-build/orig/sdcc/src/pic14/gen.c:2316:resultRemat *{*
;;; /home/sdcc-builder/build/sdcc-build/orig/sdcc/src/pic14/gen.c:2778:genGoto *{*
;; >>> /home/sdcc-builder/build/sdcc-build/orig/sdcc/src/pic14/gen.c:2780:genGoto
;; ***	popGetLabel  key=8, label offset 81
	GOTO	_00189_DS_
;;; /home/sdcc-builder/build/sdcc-build/orig/sdcc/src/pic14/gen.c:2316:resultRemat *{*
;;; /home/sdcc-builder/build/sdcc-build/orig/sdcc/src/pic14/gen.c:2760:genLabel *{*
;; ***	genLabel  2763
;;; /home/sdcc-builder/build/sdcc-build/orig/sdcc/src/pic14/gen.c:2316:resultRemat *{*
;;; /home/sdcc-builder/build/sdcc-build/orig/sdcc/src/pic14/gen.c:2316:resultRemat *{*
;;; /home/sdcc-builder/build/sdcc-build/orig/sdcc/src/pic14/gen.c:2316:resultRemat *{*
;;; /home/sdcc-builder/build/sdcc-build/orig/sdcc/src/pic14/gen.c:2086:genCall *{*
;; ***	genCall  2088
;;; /home/sdcc-builder/build/sdcc-build/orig/sdcc/src/pic14/gen.c:1801:saveRegisters *{*
;; ***	saveRegisters  1803
;;	694 register type nRegs=1
;;	694 register type nRegs=1
;; 	2135 left AOP_REG
;;; /home/sdcc-builder/build/sdcc-build/orig/sdcc/src/pic14/gen.c:1343:mov2w_op *{*
;; ***	mov2w  1381  offset=0
;; >>> /home/sdcc-builder/build/sdcc-build/orig/sdcc/src/pic14/gen.c:1386:mov2w
;;	1109 rIdx = r0x1053 
_00188_DS_
	.line	177; "Display.c"	SSD_SetValue(SSD_TEMP_TENS, rem);
	BANKSEL	r0x100D
	MOVF	r0x100D,W
;; 	2135 left AOP_LIT
;; >>> /home/sdcc-builder/build/sdcc-build/orig/sdcc/src/pic14/gen.c:2143:genCall
;; ***	popRegFromIdx,1042  , rIdx=0x7f
	MOVWF	STK00
;;; /home/sdcc-builder/build/sdcc-build/orig/sdcc/src/pic14/gen.c:1343:mov2w_op *{*
;; >>> /home/sdcc-builder/build/sdcc-build/orig/sdcc/src/pic14/gen.c:1361:mov2w_op
	MOVLW	0x01
;; >>> /home/sdcc-builder/build/sdcc-build/orig/sdcc/src/pic14/gen.c:2173:genCall
	PAGESEL	_SSD_SetValue
;; >>> /home/sdcc-builder/build/sdcc-build/orig/sdcc/src/pic14/gen.c:2175:genCall
	CALL	_SSD_SetValue
;; >>> /home/sdcc-builder/build/sdcc-build/orig/sdcc/src/pic14/gen.c:2181:genCall
	PAGESEL	$
;;; /home/sdcc-builder/build/sdcc-build/orig/sdcc/src/pic14/gen.c:1845:unsaveRegisters *{*
;; ***	unsaveRegisters  1847
;;; /home/sdcc-builder/build/sdcc-build/orig/sdcc/src/pic14/gen.c:2316:resultRemat *{*
;;; /home/sdcc-builder/build/sdcc-build/orig/sdcc/src/pic14/gen.c:2760:genLabel *{*
;; ***	genLabel  2763
;;; /home/sdcc-builder/build/sdcc-build/orig/sdcc/src/pic14/gen.c:2316:resultRemat *{*
;;; /home/sdcc-builder/build/sdcc-build/orig/sdcc/src/pic14/gen.c:2316:resultRemat *{*
;;; /home/sdcc-builder/build/sdcc-build/orig/sdcc/src/pic14/gen.c:2316:resultRemat *{*
;;; /home/sdcc-builder/build/sdcc-build/orig/sdcc/src/pic14/gen.c:2086:genCall *{*
;; ***	genCall  2088
;;; /home/sdcc-builder/build/sdcc-build/orig/sdcc/src/pic14/gen.c:1801:saveRegisters *{*
;; ***	saveRegisters  1803
;;	694 register type nRegs=2
;; 	2135 left AOP_LIT
;;; /home/sdcc-builder/build/sdcc-build/orig/sdcc/src/pic14/gen.c:1343:mov2w_op *{*
;; >>> /home/sdcc-builder/build/sdcc-build/orig/sdcc/src/pic14/gen.c:1361:mov2w_op
_00189_DS_
	.line	179; "Display.c"	Temp/=10;
	MOVLW	0x0a
;; 	2135 left AOP_LIT
;; >>> /home/sdcc-builder/build/sdcc-build/orig/sdcc/src/pic14/gen.c:2143:genCall
;; ***	popRegFromIdx,1042  , rIdx=0x7d
	MOVWF	STK02
;;; /home/sdcc-builder/build/sdcc-build/orig/sdcc/src/pic14/gen.c:1343:mov2w_op *{*
;; >>> /home/sdcc-builder/build/sdcc-build/orig/sdcc/src/pic14/gen.c:1361:mov2w_op
	MOVLW	0x00
;;	694 register type nRegs=2
;; 	2135 left AOP_REG
;; >>> /home/sdcc-builder/build/sdcc-build/orig/sdcc/src/pic14/gen.c:2143:genCall
;; ***	popRegFromIdx,1042  , rIdx=0x7e
	MOVWF	STK01
;;; /home/sdcc-builder/build/sdcc-build/orig/sdcc/src/pic14/gen.c:1343:mov2w_op *{*
;; ***	mov2w  1381  offset=0
;; >>> /home/sdcc-builder/build/sdcc-build/orig/sdcc/src/pic14/gen.c:1386:mov2w
;;	1109 rIdx = r0x104E 
	BANKSEL	r0x1008
	MOVF	r0x1008,W
;; 	2135 left AOP_REG
;; >>> /home/sdcc-builder/build/sdcc-build/orig/sdcc/src/pic14/gen.c:2143:genCall
;; ***	popRegFromIdx,1042  , rIdx=0x7f
	MOVWF	STK00
;;; /home/sdcc-builder/build/sdcc-build/orig/sdcc/src/pic14/gen.c:1343:mov2w_op *{*
;; ***	mov2w  1381  offset=1
;; >>> /home/sdcc-builder/build/sdcc-build/orig/sdcc/src/pic14/gen.c:1386:mov2w
;;	1109 rIdx = r0x104F 
	MOVF	r0x1009,W
;; >>> /home/sdcc-builder/build/sdcc-build/orig/sdcc/src/pic14/gen.c:2173:genCall
	PAGESEL	__divuint
;; >>> /home/sdcc-builder/build/sdcc-build/orig/sdcc/src/pic14/gen.c:2175:genCall
	CALL	__divuint
;; >>> /home/sdcc-builder/build/sdcc-build/orig/sdcc/src/pic14/gen.c:2181:genCall
	PAGESEL	$
;;	694 register type nRegs=2
;;; /home/sdcc-builder/build/sdcc-build/orig/sdcc/src/pic14/gen.c:1907:assignResultValue *{*
;; ***	assignResultValue  1909
;; 	line = 1911 result -=-, size=0, left AOP_REG=r0x104E, size=2, right -=-, size=0
;; >>> /home/sdcc-builder/build/sdcc-build/orig/sdcc/src/pic14/gen.c:1393:movwf
;;	1109 rIdx = r0x104F 
	BANKSEL	r0x1009
	MOVWF	r0x1009
;; >>> /home/sdcc-builder/build/sdcc-build/orig/sdcc/src/pic14/gen.c:1423:get_returnvalue
;; ***	popRegFromIdx,1042  , rIdx=0x7f
	MOVF	STK00,W
;; >>> /home/sdcc-builder/build/sdcc-build/orig/sdcc/src/pic14/gen.c:1393:movwf
;;	1109 rIdx = r0x104E 
	MOVWF	r0x1008
;; 	2195 left AOP_REG
;;; /home/sdcc-builder/build/sdcc-build/orig/sdcc/src/pic14/gen.c:1845:unsaveRegisters *{*
;; ***	unsaveRegisters  1847
;;; /home/sdcc-builder/build/sdcc-build/orig/sdcc/src/pic14/gen.c:2316:resultRemat *{*
;;; /home/sdcc-builder/build/sdcc-build/orig/sdcc/src/pic14/gen.c:2778:genGoto *{*
;; >>> /home/sdcc-builder/build/sdcc-build/orig/sdcc/src/pic14/gen.c:2780:genGoto
;; ***	popGetLabel  key=9, label offset 81
	GOTO	_00190_DS_
;;; /home/sdcc-builder/build/sdcc-build/orig/sdcc/src/pic14/gen.c:2316:resultRemat *{*
;;; /home/sdcc-builder/build/sdcc-build/orig/sdcc/src/pic14/gen.c:2760:genLabel *{*
;; ***	genLabel  2763
;;; /home/sdcc-builder/build/sdcc-build/orig/sdcc/src/pic14/gen.c:2316:resultRemat *{*
;;; /home/sdcc-builder/build/sdcc-build/orig/sdcc/src/pic14/gen.c:2528:genEndFunction *{*
;; ***	genEndFunction  2530
_00193_DS_
	RETURN	
; exit point of _Disp_PrintTemp

;***
;  pBlock Stats: dbName = C
;***
;entry:  _Disp_ElementsLED	;Function start
; 2 exit points
;has an exit
;functions called:
;   _Heat_GetState
;   _LED_Toggle
;   _Cool_GetState
;   _LED_SetState
;   _Cool_GetState
;   _Heat_GetState
;   _LED_SetState
;   _Heat_GetState
;   _LED_Toggle
;   _Cool_GetState
;   _LED_SetState
;   _Cool_GetState
;   _Heat_GetState
;   _LED_SetState
;2 compiler assigned registers:
;   r0x100E
;   STK00
;; Starting pCode block
;;; /home/sdcc-builder/build/sdcc-build/orig/sdcc/src/pic14/gen.c:2316:resultRemat *{*
;;; /home/sdcc-builder/build/sdcc-build/orig/sdcc/src/pic14/gen.c:2760:genLabel *{*
;; ***	genLabel  2763
;;; /home/sdcc-builder/build/sdcc-build/orig/sdcc/src/pic14/gen.c:2316:resultRemat *{*
;;; /home/sdcc-builder/build/sdcc-build/orig/sdcc/src/pic14/gen.c:2340:genFunction *{*
;; ***	genFunction  2342 curr label offset=40previous max_key=4 
_Disp_ElementsLED	;Function start
; 2 exit points
;;; /home/sdcc-builder/build/sdcc-build/orig/sdcc/src/pic14/gen.c:2316:resultRemat *{*
;;; /home/sdcc-builder/build/sdcc-build/orig/sdcc/src/pic14/gen.c:2316:resultRemat *{*
;;; /home/sdcc-builder/build/sdcc-build/orig/sdcc/src/pic14/gen.c:2086:genCall *{*
;; ***	genCall  2088
;;; /home/sdcc-builder/build/sdcc-build/orig/sdcc/src/pic14/gen.c:1801:saveRegisters *{*
;; ***	saveRegisters  1803
;; 	2135 left AOP_LIT
;;; /home/sdcc-builder/build/sdcc-build/orig/sdcc/src/pic14/gen.c:1343:mov2w_op *{*
;; >>> /home/sdcc-builder/build/sdcc-build/orig/sdcc/src/pic14/gen.c:1361:mov2w_op
	.line	127; "Display.c"	if(Heat_GetState(Heat_Res)==HEAT_ON)
	MOVLW	0x00
;; >>> /home/sdcc-builder/build/sdcc-build/orig/sdcc/src/pic14/gen.c:2173:genCall
	PAGESEL	_Heat_GetState
;; >>> /home/sdcc-builder/build/sdcc-build/orig/sdcc/src/pic14/gen.c:2175:genCall
	CALL	_Heat_GetState
;; >>> /home/sdcc-builder/build/sdcc-build/orig/sdcc/src/pic14/gen.c:2181:genCall
	PAGESEL	$
;;	694 register type nRegs=1
;;; /home/sdcc-builder/build/sdcc-build/orig/sdcc/src/pic14/gen.c:1907:assignResultValue *{*
;; ***	assignResultValue  1909
;; 	line = 1911 result -=-, size=0, left AOP_REG=r0x104D, size=1, right -=-, size=0
;; >>> /home/sdcc-builder/build/sdcc-build/orig/sdcc/src/pic14/gen.c:1393:movwf
;;	1109 rIdx = r0x104D 
	BANKSEL	r0x100E
	MOVWF	r0x100E
	XORLW	0x01
;; >>> /home/sdcc-builder/build/sdcc-build/orig/sdcc/src/pic14/gen.c:3687:genCmpEq
	BTFSS	STATUS,2
;; >>> /home/sdcc-builder/build/sdcc-build/orig/sdcc/src/pic14/gen.c:3690:genCmpEq
;; ***	popGetLabel  key=10, label offset 48
	GOTO	_00158_DS_
;;; /home/sdcc-builder/build/sdcc-build/orig/sdcc/src/pic14/gen.c:2316:resultRemat *{*
;;; /home/sdcc-builder/build/sdcc-build/orig/sdcc/src/pic14/gen.c:2316:resultRemat *{*
;; ***	genPlus  611
;;; /home/sdcc-builder/build/sdcc-build/orig/sdcc/src/pic14/genarith.c:612:genPlus *{*
;; ***	aopForSym 315
;;	327 sym->rname = _Disp_ElementsLED_HeatCounter_1_89, size = 2
;;	575
;; 	line = 618 result AOP_DIR=_Disp_ElementsLED_HeatCounter_1_89, size=2, left AOP_DIR=_Disp_ElementsLED_HeatCounter_1_89, size=2, right AOP_LIT=0x0a, size=2
;;; /home/sdcc-builder/build/sdcc-build/orig/sdcc/src/pic14/genarith.c:142:genPlusIncr *{*
;; ***	genPlusIncr  144
;; 	result AOP_DIR, left AOP_DIR, right AOP_LIT
;; 	genPlusIncr  156
;;	adding lit to something. size 2
;;; /home/sdcc-builder/build/sdcc-build/orig/sdcc/src/pic14/genarith.c:269:genAddLit *{*
;; ***	genAddLit  270
;; hi = 0	genAddLit  328
;; >>> /home/sdcc-builder/build/sdcc-build/orig/sdcc/src/pic14/genarith.c:344:genAddLit
	.line	129; "Display.c"	HeatCounter+=DISP_PERIOD_MS;
	MOVLW	0x0a
;; >>> /home/sdcc-builder/build/sdcc-build/orig/sdcc/src/pic14/genarith.c:345:genAddLit
;;	1009
;;	1028  _Disp_ElementsLED_HeatCounter_1_89   offset=0
	BANKSEL	_Disp_ElementsLED_HeatCounter_1_89
	ADDWF	_Disp_ElementsLED_HeatCounter_1_89,F
;; >>> /home/sdcc-builder/build/sdcc-build/orig/sdcc/src/pic14/genarith.c:346:genAddLit
	BTFSC	STATUS,0
;; >>> /home/sdcc-builder/build/sdcc-build/orig/sdcc/src/pic14/genarith.c:347:genAddLit
;;	1009
;;	1028  _Disp_ElementsLED_HeatCounter_1_89   offset=1
	INCF	(_Disp_ElementsLED_HeatCounter_1_89 + 1),F
;; ***	addSign  861
;;; /home/sdcc-builder/build/sdcc-build/orig/sdcc/src/pic14/genarith.c:862:addSign *{*
;;; /home/sdcc-builder/build/sdcc-build/orig/sdcc/src/pic14/gen.c:2316:resultRemat *{*
;;; /home/sdcc-builder/build/sdcc-build/orig/sdcc/src/pic14/gen.c:3619:genCmpEq *{*
;; ***	genCmpEq  3620
;; ifx is non-null
;; ***	aopForSym 315
;;	327 sym->rname = _Disp_ElementsLED_HeatCounter_1_89, size = 2
;; 	line = 3631 result AOP_CRY=0x00, size=0, left AOP_DIR=_Disp_ElementsLED_HeatCounter_1_89, size=2, right AOP_LIT=0xe8, size=2
;; ***	mov2w  1381  offset=0
;; >>> /home/sdcc-builder/build/sdcc-build/orig/sdcc/src/pic14/gen.c:1386:mov2w
;;	1009
;;	1028  _Disp_ElementsLED_HeatCounter_1_89   offset=0
	.line	130; "Display.c"	if(HeatCounter != DISP_BLNK_MS)
	MOVF	_Disp_ElementsLED_HeatCounter_1_89,W
;; >>> /home/sdcc-builder/build/sdcc-build/orig/sdcc/src/pic14/gen.c:3685:genCmpEq
	XORLW	0xe8
;; >>> /home/sdcc-builder/build/sdcc-build/orig/sdcc/src/pic14/gen.c:3687:genCmpEq
	BTFSS	STATUS,2
;; >>> /home/sdcc-builder/build/sdcc-build/orig/sdcc/src/pic14/gen.c:3690:genCmpEq
;; ***	popGetLabel  key=29, label offset 48
	GOTO	_00177_DS_
;; ***	mov2w  1381  offset=1
;; >>> /home/sdcc-builder/build/sdcc-build/orig/sdcc/src/pic14/gen.c:1386:mov2w
;;	1009
;;	1028  _Disp_ElementsLED_HeatCounter_1_89   offset=1
	MOVF	(_Disp_ElementsLED_HeatCounter_1_89 + 1),W
;; >>> /home/sdcc-builder/build/sdcc-build/orig/sdcc/src/pic14/gen.c:3685:genCmpEq
	.line	132; "Display.c"	return;
	XORLW	0x03
	.line	134; "Display.c"	HeatCounter = 0;
	BTFSS	STATUS,2
_00177_DS_
	GOTO	_00160_DS_
	BANKSEL	_Disp_ElementsLED_HeatCounter_1_89
	CLRF	_Disp_ElementsLED_HeatCounter_1_89
	CLRF	(_Disp_ElementsLED_HeatCounter_1_89 + 1)
;;; /home/sdcc-builder/build/sdcc-build/orig/sdcc/src/pic14/gen.c:2316:resultRemat *{*
;;; /home/sdcc-builder/build/sdcc-build/orig/sdcc/src/pic14/gen.c:2316:resultRemat *{*
;;; /home/sdcc-builder/build/sdcc-build/orig/sdcc/src/pic14/gen.c:2086:genCall *{*
;; ***	genCall  2088
;;; /home/sdcc-builder/build/sdcc-build/orig/sdcc/src/pic14/gen.c:1801:saveRegisters *{*
;; ***	saveRegisters  1803
;; 	2135 left AOP_LIT
;;; /home/sdcc-builder/build/sdcc-build/orig/sdcc/src/pic14/gen.c:1343:mov2w_op *{*
;; >>> /home/sdcc-builder/build/sdcc-build/orig/sdcc/src/pic14/gen.c:1361:mov2w_op
	.line	135; "Display.c"	LED_Toggle(LED_1);
	MOVLW	0x00
;; >>> /home/sdcc-builder/build/sdcc-build/orig/sdcc/src/pic14/gen.c:2173:genCall
	PAGESEL	_LED_Toggle
;; >>> /home/sdcc-builder/build/sdcc-build/orig/sdcc/src/pic14/gen.c:2175:genCall
	CALL	_LED_Toggle
;; >>> /home/sdcc-builder/build/sdcc-build/orig/sdcc/src/pic14/gen.c:2181:genCall
	PAGESEL	$
;;; /home/sdcc-builder/build/sdcc-build/orig/sdcc/src/pic14/gen.c:1845:unsaveRegisters *{*
;; ***	unsaveRegisters  1847
;;; /home/sdcc-builder/build/sdcc-build/orig/sdcc/src/pic14/gen.c:2316:resultRemat *{*
;;; /home/sdcc-builder/build/sdcc-build/orig/sdcc/src/pic14/gen.c:2778:genGoto *{*
;; >>> /home/sdcc-builder/build/sdcc-build/orig/sdcc/src/pic14/gen.c:2780:genGoto
;; ***	popGetLabel  key=12, label offset 48
	GOTO	_00160_DS_
;;; /home/sdcc-builder/build/sdcc-build/orig/sdcc/src/pic14/gen.c:2316:resultRemat *{*
;;; /home/sdcc-builder/build/sdcc-build/orig/sdcc/src/pic14/gen.c:2760:genLabel *{*
;; ***	genLabel  2763
;;; /home/sdcc-builder/build/sdcc-build/orig/sdcc/src/pic14/gen.c:2316:resultRemat *{*
;;; /home/sdcc-builder/build/sdcc-build/orig/sdcc/src/pic14/gen.c:2316:resultRemat *{*
;;; /home/sdcc-builder/build/sdcc-build/orig/sdcc/src/pic14/gen.c:2086:genCall *{*
;; ***	genCall  2088
;;; /home/sdcc-builder/build/sdcc-build/orig/sdcc/src/pic14/gen.c:1801:saveRegisters *{*
;; ***	saveRegisters  1803
;; 	2135 left AOP_LIT
;;; /home/sdcc-builder/build/sdcc-build/orig/sdcc/src/pic14/gen.c:1343:mov2w_op *{*
;; >>> /home/sdcc-builder/build/sdcc-build/orig/sdcc/src/pic14/gen.c:1361:mov2w_op
_00158_DS_
	.line	138; "Display.c"	else if(Cool_GetState(COOL_FAN) == COOL_ON)
	MOVLW	0x00
;; >>> /home/sdcc-builder/build/sdcc-build/orig/sdcc/src/pic14/gen.c:2173:genCall
	PAGESEL	_Cool_GetState
;; >>> /home/sdcc-builder/build/sdcc-build/orig/sdcc/src/pic14/gen.c:2175:genCall
	CALL	_Cool_GetState
;; >>> /home/sdcc-builder/build/sdcc-build/orig/sdcc/src/pic14/gen.c:2181:genCall
	PAGESEL	$
;;	694 register type nRegs=1
;;; /home/sdcc-builder/build/sdcc-build/orig/sdcc/src/pic14/gen.c:1907:assignResultValue *{*
;; ***	assignResultValue  1909
;; 	line = 1911 result -=-, size=0, left AOP_REG=r0x104D, size=1, right -=-, size=0
;; >>> /home/sdcc-builder/build/sdcc-build/orig/sdcc/src/pic14/gen.c:1393:movwf
;;	1109 rIdx = r0x104D 
	BANKSEL	r0x100E
	MOVWF	r0x100E
	XORLW	0x01
;; >>> /home/sdcc-builder/build/sdcc-build/orig/sdcc/src/pic14/gen.c:3687:genCmpEq
	BTFSS	STATUS,2
;; >>> /home/sdcc-builder/build/sdcc-build/orig/sdcc/src/pic14/gen.c:3690:genCmpEq
;; ***	popGetLabel  key=7, label offset 48
	GOTO	_00155_DS_
;;; /home/sdcc-builder/build/sdcc-build/orig/sdcc/src/pic14/gen.c:2316:resultRemat *{*
;;; /home/sdcc-builder/build/sdcc-build/orig/sdcc/src/pic14/gen.c:2316:resultRemat *{*
;;; /home/sdcc-builder/build/sdcc-build/orig/sdcc/src/pic14/gen.c:2316:resultRemat *{*
;;; /home/sdcc-builder/build/sdcc-build/orig/sdcc/src/pic14/gen.c:2316:resultRemat *{*
;;; /home/sdcc-builder/build/sdcc-build/orig/sdcc/src/pic14/gen.c:2086:genCall *{*
;; ***	genCall  2088
;;; /home/sdcc-builder/build/sdcc-build/orig/sdcc/src/pic14/gen.c:1801:saveRegisters *{*
;; ***	saveRegisters  1803
;; 	2135 left AOP_LIT
;;; /home/sdcc-builder/build/sdcc-build/orig/sdcc/src/pic14/gen.c:1343:mov2w_op *{*
;; >>> /home/sdcc-builder/build/sdcc-build/orig/sdcc/src/pic14/gen.c:1361:mov2w_op
	.line	140; "Display.c"	LED_SetState(LED_1,LED_ON);
	MOVLW	0x01
;; 	2135 left AOP_LIT
;; >>> /home/sdcc-builder/build/sdcc-build/orig/sdcc/src/pic14/gen.c:2143:genCall
;; ***	popRegFromIdx,1042  , rIdx=0x7f
	MOVWF	STK00
;;; /home/sdcc-builder/build/sdcc-build/orig/sdcc/src/pic14/gen.c:1343:mov2w_op *{*
;; >>> /home/sdcc-builder/build/sdcc-build/orig/sdcc/src/pic14/gen.c:1361:mov2w_op
	MOVLW	0x00
;; >>> /home/sdcc-builder/build/sdcc-build/orig/sdcc/src/pic14/gen.c:2173:genCall
	PAGESEL	_LED_SetState
;; >>> /home/sdcc-builder/build/sdcc-build/orig/sdcc/src/pic14/gen.c:2175:genCall
	CALL	_LED_SetState
;; >>> /home/sdcc-builder/build/sdcc-build/orig/sdcc/src/pic14/gen.c:2181:genCall
	PAGESEL	$
;;; /home/sdcc-builder/build/sdcc-build/orig/sdcc/src/pic14/gen.c:1845:unsaveRegisters *{*
;; ***	unsaveRegisters  1847
;;; /home/sdcc-builder/build/sdcc-build/orig/sdcc/src/pic14/gen.c:2316:resultRemat *{*
;;; /home/sdcc-builder/build/sdcc-build/orig/sdcc/src/pic14/gen.c:2778:genGoto *{*
;; >>> /home/sdcc-builder/build/sdcc-build/orig/sdcc/src/pic14/gen.c:2780:genGoto
;; ***	popGetLabel  key=12, label offset 48
	GOTO	_00160_DS_
;;; /home/sdcc-builder/build/sdcc-build/orig/sdcc/src/pic14/gen.c:2316:resultRemat *{*
;;; /home/sdcc-builder/build/sdcc-build/orig/sdcc/src/pic14/gen.c:2760:genLabel *{*
;; ***	genLabel  2763
;;; /home/sdcc-builder/build/sdcc-build/orig/sdcc/src/pic14/gen.c:2316:resultRemat *{*
;;; /home/sdcc-builder/build/sdcc-build/orig/sdcc/src/pic14/gen.c:2316:resultRemat *{*
;;; /home/sdcc-builder/build/sdcc-build/orig/sdcc/src/pic14/gen.c:2086:genCall *{*
;; ***	genCall  2088
;;; /home/sdcc-builder/build/sdcc-build/orig/sdcc/src/pic14/gen.c:1801:saveRegisters *{*
;; ***	saveRegisters  1803
;; 	2135 left AOP_LIT
;;; /home/sdcc-builder/build/sdcc-build/orig/sdcc/src/pic14/gen.c:1343:mov2w_op *{*
;; >>> /home/sdcc-builder/build/sdcc-build/orig/sdcc/src/pic14/gen.c:1361:mov2w_op
_00155_DS_
	.line	143; "Display.c"	else if (Cool_GetState(COOL_FAN) == COOL_OFF && Heat_GetState(Heat_Res)==HEAT_OFF)
	MOVLW	0x00
;; >>> /home/sdcc-builder/build/sdcc-build/orig/sdcc/src/pic14/gen.c:2173:genCall
	PAGESEL	_Cool_GetState
;; >>> /home/sdcc-builder/build/sdcc-build/orig/sdcc/src/pic14/gen.c:2175:genCall
	CALL	_Cool_GetState
;; >>> /home/sdcc-builder/build/sdcc-build/orig/sdcc/src/pic14/gen.c:2181:genCall
	PAGESEL	$
;;	694 register type nRegs=1
;;; /home/sdcc-builder/build/sdcc-build/orig/sdcc/src/pic14/gen.c:1907:assignResultValue *{*
;; ***	assignResultValue  1909
;; 	line = 1911 result -=-, size=0, left AOP_REG=r0x104D, size=1, right -=-, size=0
;; >>> /home/sdcc-builder/build/sdcc-build/orig/sdcc/src/pic14/gen.c:1393:movwf
;;	1109 rIdx = r0x104D 
	BANKSEL	r0x100E
	MOVWF	r0x100E
;; 	2195 left AOP_REG
;;; /home/sdcc-builder/build/sdcc-build/orig/sdcc/src/pic14/gen.c:1845:unsaveRegisters *{*
;; ***	unsaveRegisters  1847
;;; /home/sdcc-builder/build/sdcc-build/orig/sdcc/src/pic14/gen.c:2316:resultRemat *{*
;;; /home/sdcc-builder/build/sdcc-build/orig/sdcc/src/pic14/gen.c:6759:genIfx *{*
;; ***	genIfx  6760
;;	694 register type nRegs=1
;; ***	pic14_toBoolean  1515
;; >>> /home/sdcc-builder/build/sdcc-build/orig/sdcc/src/pic14/gen.c:1522:pic14_toBoolean
	MOVF	r0x100E,W
	BTFSS	STATUS,2
;; >>> /home/sdcc-builder/build/sdcc-build/orig/sdcc/src/pic14/gen.c:6809:genIfx
;; ***	popGetLabel  key=12, label offset 48
	GOTO	_00160_DS_
;;; /home/sdcc-builder/build/sdcc-build/orig/sdcc/src/pic14/gen.c:2316:resultRemat *{*
;;; /home/sdcc-builder/build/sdcc-build/orig/sdcc/src/pic14/gen.c:2316:resultRemat *{*
;;; /home/sdcc-builder/build/sdcc-build/orig/sdcc/src/pic14/gen.c:2086:genCall *{*
;; ***	genCall  2088
;;; /home/sdcc-builder/build/sdcc-build/orig/sdcc/src/pic14/gen.c:1801:saveRegisters *{*
;; ***	saveRegisters  1803
;; 	2135 left AOP_LIT
;;; /home/sdcc-builder/build/sdcc-build/orig/sdcc/src/pic14/gen.c:1343:mov2w_op *{*
;; >>> /home/sdcc-builder/build/sdcc-build/orig/sdcc/src/pic14/gen.c:1361:mov2w_op
	MOVLW	0x00
;; >>> /home/sdcc-builder/build/sdcc-build/orig/sdcc/src/pic14/gen.c:2173:genCall
	PAGESEL	_Heat_GetState
;; >>> /home/sdcc-builder/build/sdcc-build/orig/sdcc/src/pic14/gen.c:2175:genCall
	CALL	_Heat_GetState
;; >>> /home/sdcc-builder/build/sdcc-build/orig/sdcc/src/pic14/gen.c:2181:genCall
	PAGESEL	$
;;	694 register type nRegs=1
;;; /home/sdcc-builder/build/sdcc-build/orig/sdcc/src/pic14/gen.c:1907:assignResultValue *{*
;; ***	assignResultValue  1909
;; 	line = 1911 result -=-, size=0, left AOP_REG=r0x104D, size=1, right -=-, size=0
;; >>> /home/sdcc-builder/build/sdcc-build/orig/sdcc/src/pic14/gen.c:1393:movwf
;;	1109 rIdx = r0x104D 
	BANKSEL	r0x100E
	MOVWF	r0x100E
;; 	2195 left AOP_REG
;;; /home/sdcc-builder/build/sdcc-build/orig/sdcc/src/pic14/gen.c:1845:unsaveRegisters *{*
;; ***	unsaveRegisters  1847
;;; /home/sdcc-builder/build/sdcc-build/orig/sdcc/src/pic14/gen.c:2316:resultRemat *{*
;;; /home/sdcc-builder/build/sdcc-build/orig/sdcc/src/pic14/gen.c:6759:genIfx *{*
;; ***	genIfx  6760
;;	694 register type nRegs=1
;; ***	pic14_toBoolean  1515
;; >>> /home/sdcc-builder/build/sdcc-build/orig/sdcc/src/pic14/gen.c:1522:pic14_toBoolean
	MOVF	r0x100E,W
	BTFSS	STATUS,2
;; >>> /home/sdcc-builder/build/sdcc-build/orig/sdcc/src/pic14/gen.c:6809:genIfx
;; ***	popGetLabel  key=12, label offset 48
	GOTO	_00160_DS_
;;; /home/sdcc-builder/build/sdcc-build/orig/sdcc/src/pic14/gen.c:2316:resultRemat *{*
;;; /home/sdcc-builder/build/sdcc-build/orig/sdcc/src/pic14/gen.c:2316:resultRemat *{*
;;; /home/sdcc-builder/build/sdcc-build/orig/sdcc/src/pic14/gen.c:2316:resultRemat *{*
;;; /home/sdcc-builder/build/sdcc-build/orig/sdcc/src/pic14/gen.c:2086:genCall *{*
;; ***	genCall  2088
;;; /home/sdcc-builder/build/sdcc-build/orig/sdcc/src/pic14/gen.c:1801:saveRegisters *{*
;; ***	saveRegisters  1803
;; 	2135 left AOP_LIT
;;; /home/sdcc-builder/build/sdcc-build/orig/sdcc/src/pic14/gen.c:1343:mov2w_op *{*
;; >>> /home/sdcc-builder/build/sdcc-build/orig/sdcc/src/pic14/gen.c:1361:mov2w_op
	.line	145; "Display.c"	LED_SetState(LED_1,LED_OFF);
	MOVLW	0x00
;; 	2135 left AOP_LIT
;; >>> /home/sdcc-builder/build/sdcc-build/orig/sdcc/src/pic14/gen.c:2143:genCall
;; ***	popRegFromIdx,1042  , rIdx=0x7f
	MOVWF	STK00
;;; /home/sdcc-builder/build/sdcc-build/orig/sdcc/src/pic14/gen.c:1343:mov2w_op *{*
;; >>> /home/sdcc-builder/build/sdcc-build/orig/sdcc/src/pic14/gen.c:1361:mov2w_op
	MOVLW	0x00
;; >>> /home/sdcc-builder/build/sdcc-build/orig/sdcc/src/pic14/gen.c:2173:genCall
	PAGESEL	_LED_SetState
;; >>> /home/sdcc-builder/build/sdcc-build/orig/sdcc/src/pic14/gen.c:2175:genCall
	CALL	_LED_SetState
;; >>> /home/sdcc-builder/build/sdcc-build/orig/sdcc/src/pic14/gen.c:2181:genCall
	PAGESEL	$
;;; /home/sdcc-builder/build/sdcc-build/orig/sdcc/src/pic14/gen.c:1845:unsaveRegisters *{*
;; ***	unsaveRegisters  1847
;;; /home/sdcc-builder/build/sdcc-build/orig/sdcc/src/pic14/gen.c:2316:resultRemat *{*
;;; /home/sdcc-builder/build/sdcc-build/orig/sdcc/src/pic14/gen.c:2760:genLabel *{*
;; ***	genLabel  2763
;;; /home/sdcc-builder/build/sdcc-build/orig/sdcc/src/pic14/gen.c:2316:resultRemat *{*
;;; /home/sdcc-builder/build/sdcc-build/orig/sdcc/src/pic14/gen.c:2528:genEndFunction *{*
;; ***	genEndFunction  2530
_00160_DS_
	RETURN	
; exit point of _Disp_ElementsLED
;;; /home/sdcc-builder/build/sdcc-build/orig/sdcc/src/pic14/gen.c:7426:genpic14Code *{*

;***
;  pBlock Stats: dbName = C
;***
;entry:  _Disp_ToggleSSD	;Function start
; 2 exit points
;has an exit
;; Starting pCode block
;;; /home/sdcc-builder/build/sdcc-build/orig/sdcc/src/pic14/gen.c:2316:resultRemat *{*
;;; /home/sdcc-builder/build/sdcc-build/orig/sdcc/src/pic14/gen.c:2760:genLabel *{*
;; ***	genLabel  2763
;;; /home/sdcc-builder/build/sdcc-build/orig/sdcc/src/pic14/gen.c:2316:resultRemat *{*
;;; /home/sdcc-builder/build/sdcc-build/orig/sdcc/src/pic14/gen.c:2340:genFunction *{*
;; ***	genFunction  2342 curr label offset=32previous max_key=4 
_Disp_ToggleSSD	;Function start
; 2 exit points
;;; /home/sdcc-builder/build/sdcc-build/orig/sdcc/src/pic14/gen.c:2316:resultRemat *{*
;;; /home/sdcc-builder/build/sdcc-build/orig/sdcc/src/pic14/gen.c:6759:genIfx *{*
;; ***	genIfx  6760
;; ***	aopForSym 315
;;	327 sym->rname = _SSD_State, size = 1
;; ***	pic14_toBoolean  1515
;; >>> /home/sdcc-builder/build/sdcc-build/orig/sdcc/src/pic14/gen.c:1522:pic14_toBoolean
	.line	110; "Display.c"	if(SSD_State == SSD_OFF)
	BANKSEL	_SSD_State
	MOVF	_SSD_State,W
	BTFSS	STATUS,2
;; >>> /home/sdcc-builder/build/sdcc-build/orig/sdcc/src/pic14/gen.c:6809:genIfx
;; ***	popGetLabel  key=2, label offset 40
	GOTO	_00142_DS_
;;; /home/sdcc-builder/build/sdcc-build/orig/sdcc/src/pic14/gen.c:2316:resultRemat *{*
;;; /home/sdcc-builder/build/sdcc-build/orig/sdcc/src/pic14/gen.c:6927:genAssign *{*
;; ***	genAssign  6928
;; ***	aopForSym 315
;;	327 sym->rname = _SSD_State, size = 1
;; 	line = 6937 result AOP_DIR=_SSD_State, size=1, left -=-, size=0, right AOP_LIT=0x01, size=1
;; ***	genAssign  7023
;; >>> /home/sdcc-builder/build/sdcc-build/orig/sdcc/src/pic14/gen.c:7030:genAssign
	.line	112; "Display.c"	SSD_State=SSD_ON;
	MOVLW	0x01
;; >>> /home/sdcc-builder/build/sdcc-build/orig/sdcc/src/pic14/gen.c:7032:genAssign
;;	1009
;;	1028  _SSD_State   offset=0
	MOVWF	_SSD_State
;;; /home/sdcc-builder/build/sdcc-build/orig/sdcc/src/pic14/gen.c:2316:resultRemat *{*
;;; /home/sdcc-builder/build/sdcc-build/orig/sdcc/src/pic14/gen.c:2778:genGoto *{*
;; >>> /home/sdcc-builder/build/sdcc-build/orig/sdcc/src/pic14/gen.c:2780:genGoto
;; ***	popGetLabel  key=4, label offset 40
	GOTO	_00144_DS_
;;; /home/sdcc-builder/build/sdcc-build/orig/sdcc/src/pic14/gen.c:2316:resultRemat *{*
;;; /home/sdcc-builder/build/sdcc-build/orig/sdcc/src/pic14/gen.c:2760:genLabel *{*
;; ***	genLabel  2763
;;; /home/sdcc-builder/build/sdcc-build/orig/sdcc/src/pic14/gen.c:2316:resultRemat *{*
;;; /home/sdcc-builder/build/sdcc-build/orig/sdcc/src/pic14/gen.c:6927:genAssign *{*
;; ***	genAssign  6928
;; ***	aopForSym 315
;;	327 sym->rname = _SSD_State, size = 1
;; 	line = 6937 result AOP_DIR=_SSD_State, size=1, left -=-, size=0, right AOP_LIT=0x00, size=1
;; ***	genAssign  7023
;; >>> /home/sdcc-builder/build/sdcc-build/orig/sdcc/src/pic14/gen.c:7035:genAssign
;;	1009
;;	1028  _SSD_State   offset=0
_00142_DS_
	.line	116; "Display.c"	SSD_State=SSD_OFF;
	BANKSEL	_SSD_State
	CLRF	_SSD_State
;;; /home/sdcc-builder/build/sdcc-build/orig/sdcc/src/pic14/gen.c:2316:resultRemat *{*
;;; /home/sdcc-builder/build/sdcc-build/orig/sdcc/src/pic14/gen.c:2760:genLabel *{*
;; ***	genLabel  2763
;;; /home/sdcc-builder/build/sdcc-build/orig/sdcc/src/pic14/gen.c:2316:resultRemat *{*
;;; /home/sdcc-builder/build/sdcc-build/orig/sdcc/src/pic14/gen.c:2528:genEndFunction *{*
;; ***	genEndFunction  2530
_00144_DS_
	RETURN	
; exit point of _Disp_ToggleSSD
;;; /home/sdcc-builder/build/sdcc-build/orig/sdcc/src/pic14/gen.c:7426:genpic14Code *{*

;***
;  pBlock Stats: dbName = C
;***
;entry:  _DISP_Blink	;Function start
; 2 exit points
;has an exit
;functions called:
;   _Disp_PrintTemp
;   _SSD_SetValue
;   _SSD_SetValue
;   _Disp_PrintTemp
;   _SSD_SetValue
;   _SSD_SetValue
;1 compiler assigned register :
;   STK00
;; Starting pCode block
;;; /home/sdcc-builder/build/sdcc-build/orig/sdcc/src/pic14/gen.c:2316:resultRemat *{*
;;; /home/sdcc-builder/build/sdcc-build/orig/sdcc/src/pic14/gen.c:2760:genLabel *{*
;; ***	genLabel  2763
;;; /home/sdcc-builder/build/sdcc-build/orig/sdcc/src/pic14/gen.c:2316:resultRemat *{*
;;; /home/sdcc-builder/build/sdcc-build/orig/sdcc/src/pic14/gen.c:2340:genFunction *{*
;; ***	genFunction  2342 curr label offset=8previous max_key=20 
_DISP_Blink	;Function start
; 2 exit points
;;; /home/sdcc-builder/build/sdcc-build/orig/sdcc/src/pic14/gen.c:2316:resultRemat *{*
;;; /home/sdcc-builder/build/sdcc-build/orig/sdcc/src/pic14/gen.c:3619:genCmpEq *{*
;; ***	genCmpEq  3620
;; ifx is non-null
;; ***	aopForSym 315
;;	327 sym->rname = _SSD_State, size = 1
;; 	line = 3631 result AOP_CRY=0x00, size=0, left AOP_DIR=_SSD_State, size=1, right AOP_LIT=0x01, size=1
;; ***	mov2w  1381  offset=0
;; >>> /home/sdcc-builder/build/sdcc-build/orig/sdcc/src/pic14/gen.c:1386:mov2w
;;	1009
;;	1024  _SSD_State   offset=0 - had to alloc by reg name
	.line	93; "Display.c"	if(SSD_State == SSD_ON)
	BANKSEL	_SSD_State
	MOVF	_SSD_State,W
;; >>> /home/sdcc-builder/build/sdcc-build/orig/sdcc/src/pic14/gen.c:3685:genCmpEq
	XORLW	0x01
;; >>> /home/sdcc-builder/build/sdcc-build/orig/sdcc/src/pic14/gen.c:3687:genCmpEq
	BTFSS	STATUS,2
;; >>> /home/sdcc-builder/build/sdcc-build/orig/sdcc/src/pic14/gen.c:3690:genCmpEq
;; ***	popGetLabel  key=2, label offset 32
	GOTO	_00134_DS_
;;; /home/sdcc-builder/build/sdcc-build/orig/sdcc/src/pic14/gen.c:2316:resultRemat *{*
;;; /home/sdcc-builder/build/sdcc-build/orig/sdcc/src/pic14/gen.c:2316:resultRemat *{*
;;; /home/sdcc-builder/build/sdcc-build/orig/sdcc/src/pic14/gen.c:2086:genCall *{*
;; ***	genCall  2088
;;; /home/sdcc-builder/build/sdcc-build/orig/sdcc/src/pic14/gen.c:1801:saveRegisters *{*
;; ***	saveRegisters  1803
;; >>> /home/sdcc-builder/build/sdcc-build/orig/sdcc/src/pic14/gen.c:2175:genCall
	.line	96; "Display.c"	Disp_PrintTemp();
	CALL	_Disp_PrintTemp
;;; /home/sdcc-builder/build/sdcc-build/orig/sdcc/src/pic14/gen.c:1845:unsaveRegisters *{*
;; ***	unsaveRegisters  1847
;;; /home/sdcc-builder/build/sdcc-build/orig/sdcc/src/pic14/gen.c:2316:resultRemat *{*
;;; /home/sdcc-builder/build/sdcc-build/orig/sdcc/src/pic14/gen.c:2778:genGoto *{*
;; >>> /home/sdcc-builder/build/sdcc-build/orig/sdcc/src/pic14/gen.c:2780:genGoto
;; ***	popGetLabel  key=4, label offset 32
	GOTO	_00136_DS_
;;; /home/sdcc-builder/build/sdcc-build/orig/sdcc/src/pic14/gen.c:2316:resultRemat *{*
;;; /home/sdcc-builder/build/sdcc-build/orig/sdcc/src/pic14/gen.c:2760:genLabel *{*
;; ***	genLabel  2763
;;; /home/sdcc-builder/build/sdcc-build/orig/sdcc/src/pic14/gen.c:2316:resultRemat *{*
;;; /home/sdcc-builder/build/sdcc-build/orig/sdcc/src/pic14/gen.c:2316:resultRemat *{*
;;; /home/sdcc-builder/build/sdcc-build/orig/sdcc/src/pic14/gen.c:2316:resultRemat *{*
;;; /home/sdcc-builder/build/sdcc-build/orig/sdcc/src/pic14/gen.c:2086:genCall *{*
;; ***	genCall  2088
;;; /home/sdcc-builder/build/sdcc-build/orig/sdcc/src/pic14/gen.c:1801:saveRegisters *{*
;; ***	saveRegisters  1803
;; 	2135 left AOP_LIT
;;; /home/sdcc-builder/build/sdcc-build/orig/sdcc/src/pic14/gen.c:1343:mov2w_op *{*
;; >>> /home/sdcc-builder/build/sdcc-build/orig/sdcc/src/pic14/gen.c:1361:mov2w_op
_00134_DS_
	.line	100; "Display.c"	SSD_SetValue(SSD_TEMP_UNITS, SSD_NULL);
	MOVLW	0x0a
;; 	2135 left AOP_LIT
;; >>> /home/sdcc-builder/build/sdcc-build/orig/sdcc/src/pic14/gen.c:2143:genCall
;; ***	popRegFromIdx,1042  , rIdx=0x7f
	MOVWF	STK00
;;; /home/sdcc-builder/build/sdcc-build/orig/sdcc/src/pic14/gen.c:1343:mov2w_op *{*
;; >>> /home/sdcc-builder/build/sdcc-build/orig/sdcc/src/pic14/gen.c:1361:mov2w_op
	MOVLW	0x00
;; >>> /home/sdcc-builder/build/sdcc-build/orig/sdcc/src/pic14/gen.c:2173:genCall
	PAGESEL	_SSD_SetValue
;; >>> /home/sdcc-builder/build/sdcc-build/orig/sdcc/src/pic14/gen.c:2175:genCall
	CALL	_SSD_SetValue
;; >>> /home/sdcc-builder/build/sdcc-build/orig/sdcc/src/pic14/gen.c:2181:genCall
	PAGESEL	$
;;; /home/sdcc-builder/build/sdcc-build/orig/sdcc/src/pic14/gen.c:1845:unsaveRegisters *{*
;; ***	unsaveRegisters  1847
;;; /home/sdcc-builder/build/sdcc-build/orig/sdcc/src/pic14/gen.c:2316:resultRemat *{*
;;; /home/sdcc-builder/build/sdcc-build/orig/sdcc/src/pic14/gen.c:2316:resultRemat *{*
;;; /home/sdcc-builder/build/sdcc-build/orig/sdcc/src/pic14/gen.c:2316:resultRemat *{*
;;; /home/sdcc-builder/build/sdcc-build/orig/sdcc/src/pic14/gen.c:2086:genCall *{*
;; ***	genCall  2088
;;; /home/sdcc-builder/build/sdcc-build/orig/sdcc/src/pic14/gen.c:1801:saveRegisters *{*
;; ***	saveRegisters  1803
;; 	2135 left AOP_LIT
;;; /home/sdcc-builder/build/sdcc-build/orig/sdcc/src/pic14/gen.c:1343:mov2w_op *{*
;; >>> /home/sdcc-builder/build/sdcc-build/orig/sdcc/src/pic14/gen.c:1361:mov2w_op
	.line	101; "Display.c"	SSD_SetValue(SSD_TEMP_TENS,SSD_NULL);
	MOVLW	0x0a
;; 	2135 left AOP_LIT
;; >>> /home/sdcc-builder/build/sdcc-build/orig/sdcc/src/pic14/gen.c:2143:genCall
;; ***	popRegFromIdx,1042  , rIdx=0x7f
	MOVWF	STK00
;;; /home/sdcc-builder/build/sdcc-build/orig/sdcc/src/pic14/gen.c:1343:mov2w_op *{*
;; >>> /home/sdcc-builder/build/sdcc-build/orig/sdcc/src/pic14/gen.c:1361:mov2w_op
	MOVLW	0x01
;; >>> /home/sdcc-builder/build/sdcc-build/orig/sdcc/src/pic14/gen.c:2173:genCall
	PAGESEL	_SSD_SetValue
;; >>> /home/sdcc-builder/build/sdcc-build/orig/sdcc/src/pic14/gen.c:2175:genCall
	CALL	_SSD_SetValue
;; >>> /home/sdcc-builder/build/sdcc-build/orig/sdcc/src/pic14/gen.c:2181:genCall
	PAGESEL	$
;;; /home/sdcc-builder/build/sdcc-build/orig/sdcc/src/pic14/gen.c:1845:unsaveRegisters *{*
;; ***	unsaveRegisters  1847
;;; /home/sdcc-builder/build/sdcc-build/orig/sdcc/src/pic14/gen.c:2316:resultRemat *{*
;;; /home/sdcc-builder/build/sdcc-build/orig/sdcc/src/pic14/gen.c:2760:genLabel *{*
;; ***	genLabel  2763
;;; /home/sdcc-builder/build/sdcc-build/orig/sdcc/src/pic14/gen.c:2316:resultRemat *{*
;;; /home/sdcc-builder/build/sdcc-build/orig/sdcc/src/pic14/gen.c:2528:genEndFunction *{*
;; ***	genEndFunction  2530
_00136_DS_
	RETURN	
; exit point of _DISP_Blink
;;; /home/sdcc-builder/build/sdcc-build/orig/sdcc/src/pic14/gen.c:7426:genpic14Code *{*

;***
;  pBlock Stats: dbName = C
;***
;entry:  _DISP_Update	;Function start
; 2 exit points
;has an exit
;functions called:
;   _Disp_ElementsLED
;   _Disp_PrintTemp
;   _Disp_ToggleSSD
;   _DISP_Blink
;   _Disp_ElementsLED
;   _Disp_PrintTemp
;   _Disp_ToggleSSD
;   _DISP_Blink
;; Starting pCode block
;;; /home/sdcc-builder/build/sdcc-build/orig/sdcc/src/pic14/gen.c:2316:resultRemat *{*
;;; /home/sdcc-builder/build/sdcc-build/orig/sdcc/src/pic14/gen.c:2760:genLabel *{*
;; ***	genLabel  2763
;;; /home/sdcc-builder/build/sdcc-build/orig/sdcc/src/pic14/gen.c:2316:resultRemat *{*
;;; /home/sdcc-builder/build/sdcc-build/orig/sdcc/src/pic14/gen.c:2340:genFunction *{*
;; ***	genFunction  2342 curr label offset=4previous max_key=0 
_DISP_Update	;Function start
; 2 exit points
;;; /home/sdcc-builder/build/sdcc-build/orig/sdcc/src/pic14/gen.c:2316:resultRemat *{*
;; ***	genPlus  611
;;; /home/sdcc-builder/build/sdcc-build/orig/sdcc/src/pic14/genarith.c:612:genPlus *{*
;; ***	aopForSym 315
;;	327 sym->rname = _DISP_Update_DISP_counter_1_75, size = 2
;;	575
;; 	line = 618 result AOP_DIR=_DISP_Update_DISP_counter_1_75, size=2, left AOP_DIR=_DISP_Update_DISP_counter_1_75, size=2, right AOP_LIT=0x0a, size=2
;;; /home/sdcc-builder/build/sdcc-build/orig/sdcc/src/pic14/genarith.c:142:genPlusIncr *{*
;; ***	genPlusIncr  144
;; 	result AOP_DIR, left AOP_DIR, right AOP_LIT
;; 	genPlusIncr  156
;;	adding lit to something. size 2
;;; /home/sdcc-builder/build/sdcc-build/orig/sdcc/src/pic14/genarith.c:269:genAddLit *{*
;; ***	genAddLit  270
;; hi = 0	genAddLit  328
;; >>> /home/sdcc-builder/build/sdcc-build/orig/sdcc/src/pic14/genarith.c:344:genAddLit
	.line	62; "Display.c"	DISP_counter += TMR_TICK_MS;
	MOVLW	0x0a
;; >>> /home/sdcc-builder/build/sdcc-build/orig/sdcc/src/pic14/genarith.c:345:genAddLit
;;	1009
;;	1028  _DISP_Update_DISP_counter_1_75   offset=0
	BANKSEL	_DISP_Update_DISP_counter_1_75
	ADDWF	_DISP_Update_DISP_counter_1_75,F
;; >>> /home/sdcc-builder/build/sdcc-build/orig/sdcc/src/pic14/genarith.c:346:genAddLit
	BTFSC	STATUS,0
;; >>> /home/sdcc-builder/build/sdcc-build/orig/sdcc/src/pic14/genarith.c:347:genAddLit
;;	1009
;;	1028  _DISP_Update_DISP_counter_1_75   offset=1
	INCF	(_DISP_Update_DISP_counter_1_75 + 1),F
;; ***	addSign  861
;;; /home/sdcc-builder/build/sdcc-build/orig/sdcc/src/pic14/genarith.c:862:addSign *{*
;;; /home/sdcc-builder/build/sdcc-build/orig/sdcc/src/pic14/gen.c:2316:resultRemat *{*
;;; /home/sdcc-builder/build/sdcc-build/orig/sdcc/src/pic14/gen.c:3619:genCmpEq *{*
;; ***	genCmpEq  3620
;; ifx is non-null
;; ***	aopForSym 315
;;	327 sym->rname = _DISP_Update_DISP_counter_1_75, size = 2
;; 	line = 3631 result AOP_CRY=0x00, size=0, left AOP_DIR=_DISP_Update_DISP_counter_1_75, size=2, right AOP_LIT=0x0a, size=2
;; ***	mov2w  1381  offset=0
;; >>> /home/sdcc-builder/build/sdcc-build/orig/sdcc/src/pic14/gen.c:1386:mov2w
;;	1009
;;	1028  _DISP_Update_DISP_counter_1_75   offset=0
	.line	64; "Display.c"	if(DISP_counter != DISP_PERIOD_MS)
	MOVF	_DISP_Update_DISP_counter_1_75,W
;; >>> /home/sdcc-builder/build/sdcc-build/orig/sdcc/src/pic14/gen.c:3685:genCmpEq
	XORLW	0x0a
;; >>> /home/sdcc-builder/build/sdcc-build/orig/sdcc/src/pic14/gen.c:3687:genCmpEq
	BTFSS	STATUS,2
;; >>> /home/sdcc-builder/build/sdcc-build/orig/sdcc/src/pic14/gen.c:3690:genCmpEq
;; ***	popGetLabel  key=19, label offset 8
	GOTO	_00127_DS_
;; ***	mov2w  1381  offset=1
;; >>> /home/sdcc-builder/build/sdcc-build/orig/sdcc/src/pic14/gen.c:1386:mov2w
;;	1009
;;	1028  _DISP_Update_DISP_counter_1_75   offset=1
	MOVF	(_DISP_Update_DISP_counter_1_75 + 1),W
;; >>> /home/sdcc-builder/build/sdcc-build/orig/sdcc/src/pic14/gen.c:3685:genCmpEq
	.line	66; "Display.c"	return;
	XORLW	0x00
	.line	68; "Display.c"	DISP_counter = 0;
	BTFSS	STATUS,2
_00127_DS_
	GOTO	_00116_DS_
	BANKSEL	_DISP_Update_DISP_counter_1_75
	CLRF	_DISP_Update_DISP_counter_1_75
	CLRF	(_DISP_Update_DISP_counter_1_75 + 1)
;;; /home/sdcc-builder/build/sdcc-build/orig/sdcc/src/pic14/gen.c:2316:resultRemat *{*
;;; /home/sdcc-builder/build/sdcc-build/orig/sdcc/src/pic14/gen.c:2086:genCall *{*
;; ***	genCall  2088
;;; /home/sdcc-builder/build/sdcc-build/orig/sdcc/src/pic14/gen.c:1801:saveRegisters *{*
;; ***	saveRegisters  1803
;; >>> /home/sdcc-builder/build/sdcc-build/orig/sdcc/src/pic14/gen.c:2175:genCall
	.line	69; "Display.c"	Disp_ElementsLED();
	CALL	_Disp_ElementsLED
;;; /home/sdcc-builder/build/sdcc-build/orig/sdcc/src/pic14/gen.c:1845:unsaveRegisters *{*
;; ***	unsaveRegisters  1847
;;; /home/sdcc-builder/build/sdcc-build/orig/sdcc/src/pic14/gen.c:2316:resultRemat *{*
;;; /home/sdcc-builder/build/sdcc-build/orig/sdcc/src/pic14/gen.c:6759:genIfx *{*
;; ***	genIfx  6760
;; ***	aopForSym 315
;;	327 sym->rname = _Settings, size = 1
;; ***	pic14_toBoolean  1515
;; >>> /home/sdcc-builder/build/sdcc-build/orig/sdcc/src/pic14/gen.c:1522:pic14_toBoolean
	.line	70; "Display.c"	if(Settings == WH_NORMAL){
	MOVLW	0x00
;; >>> /home/sdcc-builder/build/sdcc-build/orig/sdcc/src/pic14/gen.c:1533:pic14_toBoolean
;;	1009
;;	1024  _Settings   offset=0 - had to alloc by reg name
	BANKSEL	_Settings
	IORWF	_Settings,W
;; >>> /home/sdcc-builder/build/sdcc-build/orig/sdcc/src/pic14/gen.c:6808:genIfx
	BTFSS	STATUS,2
;; >>> /home/sdcc-builder/build/sdcc-build/orig/sdcc/src/pic14/gen.c:6809:genIfx
;; ***	popGetLabel  key=6, label offset 8
	GOTO	_00114_DS_
;;; /home/sdcc-builder/build/sdcc-build/orig/sdcc/src/pic14/gen.c:2316:resultRemat *{*
;;; /home/sdcc-builder/build/sdcc-build/orig/sdcc/src/pic14/gen.c:2086:genCall *{*
;; ***	genCall  2088
;;; /home/sdcc-builder/build/sdcc-build/orig/sdcc/src/pic14/gen.c:1801:saveRegisters *{*
;; ***	saveRegisters  1803
;; >>> /home/sdcc-builder/build/sdcc-build/orig/sdcc/src/pic14/gen.c:2175:genCall
	.line	71; "Display.c"	Disp_PrintTemp();
	CALL	_Disp_PrintTemp
;;; /home/sdcc-builder/build/sdcc-build/orig/sdcc/src/pic14/gen.c:1845:unsaveRegisters *{*
;; ***	unsaveRegisters  1847
;;; /home/sdcc-builder/build/sdcc-build/orig/sdcc/src/pic14/gen.c:2316:resultRemat *{*
;;; /home/sdcc-builder/build/sdcc-build/orig/sdcc/src/pic14/gen.c:2683:genRet *{*
;; ***	genRet  2685
;; >>> /home/sdcc-builder/build/sdcc-build/orig/sdcc/src/pic14/gen.c:2709:genRet
;; ***	popGetLabel  key=8, label offset 8
	.line	72; "Display.c"	return;
	GOTO	_00116_DS_
;;; /home/sdcc-builder/build/sdcc-build/orig/sdcc/src/pic14/gen.c:2316:resultRemat *{*
;;; /home/sdcc-builder/build/sdcc-build/orig/sdcc/src/pic14/gen.c:2760:genLabel *{*
;; ***	genLabel  2763
;;; /home/sdcc-builder/build/sdcc-build/orig/sdcc/src/pic14/gen.c:2316:resultRemat *{*
;; ***	genPlus  611
;;; /home/sdcc-builder/build/sdcc-build/orig/sdcc/src/pic14/genarith.c:612:genPlus *{*
;; ***	aopForSym 315
;;	327 sym->rname = _DISP_Update_DISP_Blink_Counter_1_75, size = 2
;;	575
;; 	line = 618 result AOP_DIR=_DISP_Update_DISP_Blink_Counter_1_75, size=2, left AOP_DIR=_DISP_Update_DISP_Blink_Counter_1_75, size=2, right AOP_LIT=0x0a, size=2
;;; /home/sdcc-builder/build/sdcc-build/orig/sdcc/src/pic14/genarith.c:142:genPlusIncr *{*
;; ***	genPlusIncr  144
;; 	result AOP_DIR, left AOP_DIR, right AOP_LIT
;; 	genPlusIncr  156
;;	adding lit to something. size 2
;;; /home/sdcc-builder/build/sdcc-build/orig/sdcc/src/pic14/genarith.c:269:genAddLit *{*
;; ***	genAddLit  270
;; hi = 0	genAddLit  328
;; >>> /home/sdcc-builder/build/sdcc-build/orig/sdcc/src/pic14/genarith.c:344:genAddLit
_00114_DS_
	.line	75; "Display.c"	DISP_Blink_Counter += DISP_PERIOD_MS;
	MOVLW	0x0a
;; >>> /home/sdcc-builder/build/sdcc-build/orig/sdcc/src/pic14/genarith.c:345:genAddLit
;;	1009
;;	1028  _DISP_Update_DISP_Blink_Counter_1_75   offset=0
	BANKSEL	_DISP_Update_DISP_Blink_Counter_1_75
	ADDWF	_DISP_Update_DISP_Blink_Counter_1_75,F
;; >>> /home/sdcc-builder/build/sdcc-build/orig/sdcc/src/pic14/genarith.c:346:genAddLit
	BTFSC	STATUS,0
;; >>> /home/sdcc-builder/build/sdcc-build/orig/sdcc/src/pic14/genarith.c:347:genAddLit
;;	1009
;;	1028  _DISP_Update_DISP_Blink_Counter_1_75   offset=1
	INCF	(_DISP_Update_DISP_Blink_Counter_1_75 + 1),F
;; ***	addSign  861
;;; /home/sdcc-builder/build/sdcc-build/orig/sdcc/src/pic14/genarith.c:862:addSign *{*
;;; /home/sdcc-builder/build/sdcc-build/orig/sdcc/src/pic14/gen.c:2316:resultRemat *{*
;;; /home/sdcc-builder/build/sdcc-build/orig/sdcc/src/pic14/gen.c:3619:genCmpEq *{*
;; ***	genCmpEq  3620
;; ifx is non-null
;; ***	aopForSym 315
;;	327 sym->rname = _DISP_Update_DISP_Blink_Counter_1_75, size = 2
;; 	line = 3631 result AOP_CRY=0x00, size=0, left AOP_DIR=_DISP_Update_DISP_Blink_Counter_1_75, size=2, right AOP_LIT=0xe8, size=2
;; ***	mov2w  1381  offset=0
;; >>> /home/sdcc-builder/build/sdcc-build/orig/sdcc/src/pic14/gen.c:1386:mov2w
;;	1009
;;	1028  _DISP_Update_DISP_Blink_Counter_1_75   offset=0
	.line	76; "Display.c"	if(DISP_Blink_Counter != DISP_BLNK_MS)
	MOVF	_DISP_Update_DISP_Blink_Counter_1_75,W
;; >>> /home/sdcc-builder/build/sdcc-build/orig/sdcc/src/pic14/gen.c:3685:genCmpEq
	XORLW	0xe8
;; >>> /home/sdcc-builder/build/sdcc-build/orig/sdcc/src/pic14/gen.c:3687:genCmpEq
	BTFSS	STATUS,2
;; >>> /home/sdcc-builder/build/sdcc-build/orig/sdcc/src/pic14/gen.c:3690:genCmpEq
;; ***	popGetLabel  key=20, label offset 8
	GOTO	_00128_DS_
;; ***	mov2w  1381  offset=1
;; >>> /home/sdcc-builder/build/sdcc-build/orig/sdcc/src/pic14/gen.c:1386:mov2w
;;	1009
;;	1028  _DISP_Update_DISP_Blink_Counter_1_75   offset=1
	MOVF	(_DISP_Update_DISP_Blink_Counter_1_75 + 1),W
;; >>> /home/sdcc-builder/build/sdcc-build/orig/sdcc/src/pic14/gen.c:3685:genCmpEq
	.line	78; "Display.c"	return;
	XORLW	0x03
	.line	80; "Display.c"	DISP_Blink_Counter=0;
	BTFSS	STATUS,2
_00128_DS_
	GOTO	_00116_DS_
	BANKSEL	_DISP_Update_DISP_Blink_Counter_1_75
	CLRF	_DISP_Update_DISP_Blink_Counter_1_75
	CLRF	(_DISP_Update_DISP_Blink_Counter_1_75 + 1)
;;; /home/sdcc-builder/build/sdcc-build/orig/sdcc/src/pic14/gen.c:2316:resultRemat *{*
;;; /home/sdcc-builder/build/sdcc-build/orig/sdcc/src/pic14/gen.c:2086:genCall *{*
;; ***	genCall  2088
;;; /home/sdcc-builder/build/sdcc-build/orig/sdcc/src/pic14/gen.c:1801:saveRegisters *{*
;; ***	saveRegisters  1803
;; >>> /home/sdcc-builder/build/sdcc-build/orig/sdcc/src/pic14/gen.c:2175:genCall
	.line	82; "Display.c"	Disp_ToggleSSD();
	CALL	_Disp_ToggleSSD
;;; /home/sdcc-builder/build/sdcc-build/orig/sdcc/src/pic14/gen.c:1845:unsaveRegisters *{*
;; ***	unsaveRegisters  1847
;;; /home/sdcc-builder/build/sdcc-build/orig/sdcc/src/pic14/gen.c:2316:resultRemat *{*
;;; /home/sdcc-builder/build/sdcc-build/orig/sdcc/src/pic14/gen.c:2086:genCall *{*
;; ***	genCall  2088
;;; /home/sdcc-builder/build/sdcc-build/orig/sdcc/src/pic14/gen.c:1801:saveRegisters *{*
;; ***	saveRegisters  1803
;; >>> /home/sdcc-builder/build/sdcc-build/orig/sdcc/src/pic14/gen.c:2175:genCall
	.line	83; "Display.c"	DISP_Blink();
	CALL	_DISP_Blink
;;; /home/sdcc-builder/build/sdcc-build/orig/sdcc/src/pic14/gen.c:1845:unsaveRegisters *{*
;; ***	unsaveRegisters  1847
;;; /home/sdcc-builder/build/sdcc-build/orig/sdcc/src/pic14/gen.c:2316:resultRemat *{*
;;; /home/sdcc-builder/build/sdcc-build/orig/sdcc/src/pic14/gen.c:2760:genLabel *{*
;; ***	genLabel  2763
;;; /home/sdcc-builder/build/sdcc-build/orig/sdcc/src/pic14/gen.c:2316:resultRemat *{*
;;; /home/sdcc-builder/build/sdcc-build/orig/sdcc/src/pic14/gen.c:2528:genEndFunction *{*
;; ***	genEndFunction  2530
_00116_DS_
	RETURN	
; exit point of _DISP_Update
;;; /home/sdcc-builder/build/sdcc-build/orig/sdcc/src/pic14/gen.c:7426:genpic14Code *{*

;***
;  pBlock Stats: dbName = C
;***
;entry:  _DISP_Init	;Function start
; 2 exit points
;has an exit
;functions called:
;   _SSD_Init
;   _SSD_Init
;   _SSD_SetValue
;   _SSD_SetValue
;   _LED_Init
;   _SSD_Init
;   _SSD_Init
;   _SSD_SetValue
;   _SSD_SetValue
;   _LED_Init
;1 compiler assigned register :
;   STK00
;; Starting pCode block
;;; /home/sdcc-builder/build/sdcc-build/orig/sdcc/src/pic14/gen.c:2316:resultRemat *{*
;;; /home/sdcc-builder/build/sdcc-build/orig/sdcc/src/pic14/gen.c:2760:genLabel *{*
;; ***	genLabel  2763
;;; /home/sdcc-builder/build/sdcc-build/orig/sdcc/src/pic14/gen.c:2316:resultRemat *{*
;;; /home/sdcc-builder/build/sdcc-build/orig/sdcc/src/pic14/gen.c:2340:genFunction *{*
;; ***	genFunction  2342 curr label offset=0previous max_key=0 
_DISP_Init	;Function start
; 2 exit points
;;; /home/sdcc-builder/build/sdcc-build/orig/sdcc/src/pic14/gen.c:2316:resultRemat *{*
;;; /home/sdcc-builder/build/sdcc-build/orig/sdcc/src/pic14/gen.c:2316:resultRemat *{*
;;; /home/sdcc-builder/build/sdcc-build/orig/sdcc/src/pic14/gen.c:2086:genCall *{*
;; ***	genCall  2088
;;; /home/sdcc-builder/build/sdcc-build/orig/sdcc/src/pic14/gen.c:1801:saveRegisters *{*
;; ***	saveRegisters  1803
;; 	2135 left AOP_LIT
;;; /home/sdcc-builder/build/sdcc-build/orig/sdcc/src/pic14/gen.c:1343:mov2w_op *{*
;; >>> /home/sdcc-builder/build/sdcc-build/orig/sdcc/src/pic14/gen.c:1361:mov2w_op
	.line	42; "Display.c"	SSD_Init(SSD_TEMP_UNITS);
	MOVLW	0x00
;; >>> /home/sdcc-builder/build/sdcc-build/orig/sdcc/src/pic14/gen.c:2173:genCall
	PAGESEL	_SSD_Init
;; >>> /home/sdcc-builder/build/sdcc-build/orig/sdcc/src/pic14/gen.c:2175:genCall
	CALL	_SSD_Init
;; >>> /home/sdcc-builder/build/sdcc-build/orig/sdcc/src/pic14/gen.c:2181:genCall
	PAGESEL	$
;;; /home/sdcc-builder/build/sdcc-build/orig/sdcc/src/pic14/gen.c:1845:unsaveRegisters *{*
;; ***	unsaveRegisters  1847
;;; /home/sdcc-builder/build/sdcc-build/orig/sdcc/src/pic14/gen.c:2316:resultRemat *{*
;;; /home/sdcc-builder/build/sdcc-build/orig/sdcc/src/pic14/gen.c:2316:resultRemat *{*
;;; /home/sdcc-builder/build/sdcc-build/orig/sdcc/src/pic14/gen.c:2086:genCall *{*
;; ***	genCall  2088
;;; /home/sdcc-builder/build/sdcc-build/orig/sdcc/src/pic14/gen.c:1801:saveRegisters *{*
;; ***	saveRegisters  1803
;; 	2135 left AOP_LIT
;;; /home/sdcc-builder/build/sdcc-build/orig/sdcc/src/pic14/gen.c:1343:mov2w_op *{*
;; >>> /home/sdcc-builder/build/sdcc-build/orig/sdcc/src/pic14/gen.c:1361:mov2w_op
	.line	43; "Display.c"	SSD_Init(SSD_TEMP_TENS);
	MOVLW	0x01
;; >>> /home/sdcc-builder/build/sdcc-build/orig/sdcc/src/pic14/gen.c:2173:genCall
	PAGESEL	_SSD_Init
;; >>> /home/sdcc-builder/build/sdcc-build/orig/sdcc/src/pic14/gen.c:2175:genCall
	CALL	_SSD_Init
;; >>> /home/sdcc-builder/build/sdcc-build/orig/sdcc/src/pic14/gen.c:2181:genCall
	PAGESEL	$
;;; /home/sdcc-builder/build/sdcc-build/orig/sdcc/src/pic14/gen.c:1845:unsaveRegisters *{*
;; ***	unsaveRegisters  1847
;;; /home/sdcc-builder/build/sdcc-build/orig/sdcc/src/pic14/gen.c:2316:resultRemat *{*
;;; /home/sdcc-builder/build/sdcc-build/orig/sdcc/src/pic14/gen.c:2316:resultRemat *{*
;;; /home/sdcc-builder/build/sdcc-build/orig/sdcc/src/pic14/gen.c:2316:resultRemat *{*
;;; /home/sdcc-builder/build/sdcc-build/orig/sdcc/src/pic14/gen.c:2086:genCall *{*
;; ***	genCall  2088
;;; /home/sdcc-builder/build/sdcc-build/orig/sdcc/src/pic14/gen.c:1801:saveRegisters *{*
;; ***	saveRegisters  1803
;; 	2135 left AOP_LIT
;;; /home/sdcc-builder/build/sdcc-build/orig/sdcc/src/pic14/gen.c:1343:mov2w_op *{*
;; >>> /home/sdcc-builder/build/sdcc-build/orig/sdcc/src/pic14/gen.c:1361:mov2w_op
	.line	45; "Display.c"	SSD_SetValue(SSD_TEMP_UNITS, SSD_0);
	MOVLW	0x00
;; 	2135 left AOP_LIT
;; >>> /home/sdcc-builder/build/sdcc-build/orig/sdcc/src/pic14/gen.c:2143:genCall
;; ***	popRegFromIdx,1042  , rIdx=0x7f
	MOVWF	STK00
;;; /home/sdcc-builder/build/sdcc-build/orig/sdcc/src/pic14/gen.c:1343:mov2w_op *{*
;; >>> /home/sdcc-builder/build/sdcc-build/orig/sdcc/src/pic14/gen.c:1361:mov2w_op
	MOVLW	0x00
;; >>> /home/sdcc-builder/build/sdcc-build/orig/sdcc/src/pic14/gen.c:2173:genCall
	PAGESEL	_SSD_SetValue
;; >>> /home/sdcc-builder/build/sdcc-build/orig/sdcc/src/pic14/gen.c:2175:genCall
	CALL	_SSD_SetValue
;; >>> /home/sdcc-builder/build/sdcc-build/orig/sdcc/src/pic14/gen.c:2181:genCall
	PAGESEL	$
;;; /home/sdcc-builder/build/sdcc-build/orig/sdcc/src/pic14/gen.c:1845:unsaveRegisters *{*
;; ***	unsaveRegisters  1847
;;; /home/sdcc-builder/build/sdcc-build/orig/sdcc/src/pic14/gen.c:2316:resultRemat *{*
;;; /home/sdcc-builder/build/sdcc-build/orig/sdcc/src/pic14/gen.c:2316:resultRemat *{*
;;; /home/sdcc-builder/build/sdcc-build/orig/sdcc/src/pic14/gen.c:2316:resultRemat *{*
;;; /home/sdcc-builder/build/sdcc-build/orig/sdcc/src/pic14/gen.c:2086:genCall *{*
;; ***	genCall  2088
;;; /home/sdcc-builder/build/sdcc-build/orig/sdcc/src/pic14/gen.c:1801:saveRegisters *{*
;; ***	saveRegisters  1803
;; 	2135 left AOP_LIT
;;; /home/sdcc-builder/build/sdcc-build/orig/sdcc/src/pic14/gen.c:1343:mov2w_op *{*
;; >>> /home/sdcc-builder/build/sdcc-build/orig/sdcc/src/pic14/gen.c:1361:mov2w_op
	.line	46; "Display.c"	SSD_SetValue(SSD_TEMP_TENS,SSD_0);
	MOVLW	0x00
;; 	2135 left AOP_LIT
;; >>> /home/sdcc-builder/build/sdcc-build/orig/sdcc/src/pic14/gen.c:2143:genCall
;; ***	popRegFromIdx,1042  , rIdx=0x7f
	MOVWF	STK00
;;; /home/sdcc-builder/build/sdcc-build/orig/sdcc/src/pic14/gen.c:1343:mov2w_op *{*
;; >>> /home/sdcc-builder/build/sdcc-build/orig/sdcc/src/pic14/gen.c:1361:mov2w_op
	MOVLW	0x01
;; >>> /home/sdcc-builder/build/sdcc-build/orig/sdcc/src/pic14/gen.c:2173:genCall
	PAGESEL	_SSD_SetValue
;; >>> /home/sdcc-builder/build/sdcc-build/orig/sdcc/src/pic14/gen.c:2175:genCall
	CALL	_SSD_SetValue
;; >>> /home/sdcc-builder/build/sdcc-build/orig/sdcc/src/pic14/gen.c:2181:genCall
	PAGESEL	$
;;; /home/sdcc-builder/build/sdcc-build/orig/sdcc/src/pic14/gen.c:1845:unsaveRegisters *{*
;; ***	unsaveRegisters  1847
;;; /home/sdcc-builder/build/sdcc-build/orig/sdcc/src/pic14/gen.c:2316:resultRemat *{*
;;; /home/sdcc-builder/build/sdcc-build/orig/sdcc/src/pic14/gen.c:2316:resultRemat *{*
;;; /home/sdcc-builder/build/sdcc-build/orig/sdcc/src/pic14/gen.c:2316:resultRemat *{*
;;; /home/sdcc-builder/build/sdcc-build/orig/sdcc/src/pic14/gen.c:2086:genCall *{*
;; ***	genCall  2088
;;; /home/sdcc-builder/build/sdcc-build/orig/sdcc/src/pic14/gen.c:1801:saveRegisters *{*
;; ***	saveRegisters  1803
;; 	2135 left AOP_LIT
;;; /home/sdcc-builder/build/sdcc-build/orig/sdcc/src/pic14/gen.c:1343:mov2w_op *{*
;; >>> /home/sdcc-builder/build/sdcc-build/orig/sdcc/src/pic14/gen.c:1361:mov2w_op
	.line	48; "Display.c"	LED_Init(LED_1,LED_OFF);
	MOVLW	0x00
;; 	2135 left AOP_LIT
;; >>> /home/sdcc-builder/build/sdcc-build/orig/sdcc/src/pic14/gen.c:2143:genCall
;; ***	popRegFromIdx,1042  , rIdx=0x7f
	MOVWF	STK00
;;; /home/sdcc-builder/build/sdcc-build/orig/sdcc/src/pic14/gen.c:1343:mov2w_op *{*
;; >>> /home/sdcc-builder/build/sdcc-build/orig/sdcc/src/pic14/gen.c:1361:mov2w_op
	MOVLW	0x00
;; >>> /home/sdcc-builder/build/sdcc-build/orig/sdcc/src/pic14/gen.c:2173:genCall
	PAGESEL	_LED_Init
;; >>> /home/sdcc-builder/build/sdcc-build/orig/sdcc/src/pic14/gen.c:2175:genCall
	CALL	_LED_Init
;; >>> /home/sdcc-builder/build/sdcc-build/orig/sdcc/src/pic14/gen.c:2181:genCall
	PAGESEL	$
;;; /home/sdcc-builder/build/sdcc-build/orig/sdcc/src/pic14/gen.c:1845:unsaveRegisters *{*
;; ***	unsaveRegisters  1847
;;; /home/sdcc-builder/build/sdcc-build/orig/sdcc/src/pic14/gen.c:2316:resultRemat *{*
;;; /home/sdcc-builder/build/sdcc-build/orig/sdcc/src/pic14/gen.c:2760:genLabel *{*
;; ***	genLabel  2763
;;; /home/sdcc-builder/build/sdcc-build/orig/sdcc/src/pic14/gen.c:2316:resultRemat *{*
;;; /home/sdcc-builder/build/sdcc-build/orig/sdcc/src/pic14/gen.c:2528:genEndFunction *{*
;; ***	genEndFunction  2530
	RETURN	
; exit point of _DISP_Init
;;; /home/sdcc-builder/build/sdcc-build/orig/sdcc/src/pic14/gen.c:7426:genpic14Code *{*


;	code size estimation:
;	  190+   65 =   255 instructions (  640 byte)

	end
