gpasm-1.4.0 #1106 (Oct  6 2014) obj\Debug\Key   7-1-2020  22:33:06          PAGE  1


LOC    OBJECT CODE    LINE  SOURCE TEXT
  VALUE

                      00001 ;--------------------------------------------------------
                      00002 ; File Created by SDCC : free open source ANSI-C Compiler
                      00003 ; Version 3.5.0 #9253 (Jun 20 2015) (MINGW32)
                      00004 ; This file was generated Wed Jul 01 22:33:06 2020
                      00005 ;--------------------------------------------------------
                      00006 ; PIC port for the 14-bit core
                      00007 ;--------------------------------------------------------
                      00008         .file   "Keypad.c"
                      00009         list    p=16f877a
                      00010         radix dec
                      00011         include "p16f877a.inc"
                      00001         LIST
                      00002 
                      00003 ;==========================================================================
                      00004 ; Build date : Aug 07 2014
                      00005 ;  MPASM PIC16F877A processor include
                      00006 ; 
                      00007 ;  (c) Copyright 1999-2014 Microchip Technology, All rights reserved
                      00008 ;==========================================================================
                      00009 
                      00567         LIST
                      00012 ;--------------------------------------------------------
                      00013 ; external declarations
                      00014 ;--------------------------------------------------------
  0000                00015         extern  __print_format
  0000                00016         extern  _printf_small
  0000                00017         extern  _printf
  0000                00018         extern  _vprintf
  0000                00019         extern  _sprintf
  0000                00020         extern  _vsprintf
  0000                00021         extern  _puts
  0000                00022         extern  _gets
  0000                00023         extern  _getchar
  0000                00024         extern  _putchar
  0000                00025         extern  _calloc
  0000                00026         extern  _malloc
  0000                00027         extern  _realloc
  0000                00028         extern  _free
  0000                00029         extern  _abs
  0000                00030         extern  _labs
  0000                00031         extern  _atof
  0000                00032         extern  _atoi
  0000                00033         extern  _atol
  0000                00034         extern  __uitoa
  0000                00035         extern  __itoa
  0000                00036         extern  __ultoa
  0000                00037         extern  __ltoa
  0000                00038         extern  _rand
  0000                00039         extern  _srand
  0000                00040         extern  _memcpy
  0000                00041         extern  _memmove
  0000                00042         extern  _strcpy
  0000                00043         extern  _strncpy
gpasm-1.4.0 #1106 (Oct  6 2014) obj\Debug\Key   7-1-2020  22:33:06          PAGE  2


LOC    OBJECT CODE    LINE  SOURCE TEXT
  VALUE

  0000                00044         extern  _strcat
  0000                00045         extern  _strncat
  0000                00046         extern  _memcmp
  0000                00047         extern  _strcmp
  0000                00048         extern  _strncmp
  0000                00049         extern  _strxfrm
  0000                00050         extern  _memchr
  0000                00051         extern  _strchr
  0000                00052         extern  _strcspn
  0000                00053         extern  _strpbrk
  0000                00054         extern  _strrchr
  0000                00055         extern  _strspn
  0000                00056         extern  _strstr
  0000                00057         extern  _strtok
  0000                00058         extern  _memset
  0000                00059         extern  _strlen
  0000                00060         extern  _STATUSbits
  0000                00061         extern  _PORTAbits
  0000                00062         extern  _PORTBbits
  0000                00063         extern  _PORTCbits
  0000                00064         extern  _PORTDbits
  0000                00065         extern  _PORTEbits
  0000                00066         extern  _INTCONbits
  0000                00067         extern  _PIR1bits
  0000                00068         extern  _PIR2bits
  0000                00069         extern  _T1CONbits
  0000                00070         extern  _T2CONbits
  0000                00071         extern  _SSPCONbits
  0000                00072         extern  _CCP1CONbits
  0000                00073         extern  _RCSTAbits
  0000                00074         extern  _CCP2CONbits
  0000                00075         extern  _ADCON0bits
  0000                00076         extern  _OPTION_REGbits
  0000                00077         extern  _TRISAbits
  0000                00078         extern  _TRISBbits
  0000                00079         extern  _TRISCbits
  0000                00080         extern  _TRISDbits
  0000                00081         extern  _TRISEbits
  0000                00082         extern  _PIE1bits
  0000                00083         extern  _PIE2bits
  0000                00084         extern  _PCONbits
  0000                00085         extern  _SSPCON2bits
  0000                00086         extern  _SSPSTATbits
  0000                00087         extern  _TXSTAbits
  0000                00088         extern  _CMCONbits
  0000                00089         extern  _CVRCONbits
  0000                00090         extern  _ADCON1bits
  0000                00091         extern  _EECON1bits
  0000                00092         extern  _INDF
  0000                00093         extern  _TMR0
  0000                00094         extern  _PCL
  0000                00095         extern  _STATUS
  0000                00096         extern  _FSR
gpasm-1.4.0 #1106 (Oct  6 2014) obj\Debug\Key   7-1-2020  22:33:06          PAGE  3


LOC    OBJECT CODE    LINE  SOURCE TEXT
  VALUE

  0000                00097         extern  _PORTA
  0000                00098         extern  _PORTB
  0000                00099         extern  _PORTC
  0000                00100         extern  _PORTD
  0000                00101         extern  _PORTE
  0000                00102         extern  _PCLATH
  0000                00103         extern  _INTCON
  0000                00104         extern  _PIR1
  0000                00105         extern  _PIR2
  0000                00106         extern  _TMR1
  0000                00107         extern  _TMR1L
  0000                00108         extern  _TMR1H
  0000                00109         extern  _T1CON
  0000                00110         extern  _TMR2
  0000                00111         extern  _T2CON
  0000                00112         extern  _SSPBUF
  0000                00113         extern  _SSPCON
  0000                00114         extern  _CCPR1
  0000                00115         extern  _CCPR1L
  0000                00116         extern  _CCPR1H
  0000                00117         extern  _CCP1CON
  0000                00118         extern  _RCSTA
  0000                00119         extern  _TXREG
  0000                00120         extern  _RCREG
  0000                00121         extern  _CCPR2
  0000                00122         extern  _CCPR2L
  0000                00123         extern  _CCPR2H
  0000                00124         extern  _CCP2CON
  0000                00125         extern  _ADRESH
  0000                00126         extern  _ADCON0
  0000                00127         extern  _OPTION_REG
  0000                00128         extern  _TRISA
  0000                00129         extern  _TRISB
  0000                00130         extern  _TRISC
  0000                00131         extern  _TRISD
  0000                00132         extern  _TRISE
  0000                00133         extern  _PIE1
  0000                00134         extern  _PIE2
  0000                00135         extern  _PCON
  0000                00136         extern  _SSPCON2
  0000                00137         extern  _PR2
  0000                00138         extern  _SSPADD
  0000                00139         extern  _SSPSTAT
  0000                00140         extern  _TXSTA
  0000                00141         extern  _SPBRG
  0000                00142         extern  _CMCON
  0000                00143         extern  _CVRCON
  0000                00144         extern  _ADRESL
  0000                00145         extern  _ADCON1
  0000                00146         extern  _EEDATA
  0000                00147         extern  _EEADR
  0000                00148         extern  _EEDATH
  0000                00149         extern  _EEADRH
gpasm-1.4.0 #1106 (Oct  6 2014) obj\Debug\Key   7-1-2020  22:33:06          PAGE  4


LOC    OBJECT CODE    LINE  SOURCE TEXT
  VALUE

  0000                00150         extern  _EECON1
  0000                00151         extern  _EECON2
                      00152 
  0000                00153         extern PSAVE
  0000                00154         extern SSAVE
  0000                00155         extern WSAVE
  0000                00156         extern STK12
  0000                00157         extern STK11
  0000                00158         extern STK10
  0000                00159         extern STK09
  0000                00160         extern STK08
  0000                00161         extern STK07
  0000                00162         extern STK06
  0000                00163         extern STK05
  0000                00164         extern STK04
  0000                00165         extern STK03
  0000                00166         extern STK02
  0000                00167         extern STK01
  0000                00168         extern STK00
                      00169 ;--------------------------------------------------------
                      00170 ; global declarations
                      00171 ;--------------------------------------------------------
  0000                00172         global  _Keypad_Update
  0000                00173         global  _Keypad_GetKey
  0000                00174         global  _Keypad_Init
  0000                00175         global  _LastPressed
                      00176 
                      00177 ;--------------------------------------------------------
                      00178 ; global definitions
                      00179 ;--------------------------------------------------------
                      00180 UD_Keypad_0     udata
0000                  00181 _LastPressed    res     1
                      00182 
                      00183 ;--------------------------------------------------------
                      00184 ; absolute symbol definitions
                      00185 ;--------------------------------------------------------
                      00186 ;--------------------------------------------------------
                      00187 ; compiler-defined variables
                      00188 ;--------------------------------------------------------
                      00189 UDL_Keypad_0    udata
0000                  00190 r0x1006 res     1
0001                  00191 r0x1003 res     1
0002                  00192 r0x1004 res     1
0003                  00193 r0x1005 res     1
0004                  00194 _Keypad_GetKey_Character_1_77   res     1
0005                  00195 _Keypad_Update_Keypad_Counter_1_79      res     2
                      00196 ;--------------------------------------------------------
                      00197 ; initialized data
                      00198 ;--------------------------------------------------------
                      00199 ;--------------------------------------------------------
                      00200 ; overlayable items in internal ram 
                      00201 ;--------------------------------------------------------
                      00202 ;       udata_ovr
gpasm-1.4.0 #1106 (Oct  6 2014) obj\Debug\Key   7-1-2020  22:33:06          PAGE  5


LOC    OBJECT CODE    LINE  SOURCE TEXT
  VALUE

                      00203 ;--------------------------------------------------------
                      00204 ; code
                      00205 ;--------------------------------------------------------
                      00206 code_Keypad     code
                      00207 ;***
                      00208 ;  pBlock Stats: dbName = C
                      00209 ;***
                      00210 ;entry:  _Keypad_Update ;Function start
                      00211 ; 2 exit points
                      00212 ;has an exit
                      00213 ;; Starting pCode block
                      00214 ;;; /home/sdcc-builder/build/sdcc-build/orig/sdcc/src/pic14/gen.c:2316:resultRemat *{*
                      00215 ;;; /home/sdcc-builder/build/sdcc-build/orig/sdcc/src/pic14/gen.c:2760:genLabel *{*
                      00216 ;; ***  genLabel  2763
                      00217 ;;; /home/sdcc-builder/build/sdcc-build/orig/sdcc/src/pic14/gen.c:2316:resultRemat *{*
                      00218 ;;; /home/sdcc-builder/build/sdcc-build/orig/sdcc/src/pic14/gen.c:2340:genFunction *{*
                      00219 ;; ***  genFunction  2342 curr label offset=101previous max_key=0 
0000                  00220 _Keypad_Update  ;Function start
                      00221 ; 2 exit points
                      00222 ;;; /home/sdcc-builder/build/sdcc-build/orig/sdcc/src/pic14/gen.c:2316:resultRemat *{*
                      00223 ;;; /home/sdcc-builder/build/sdcc-build/orig/sdcc/src/pic14/gen.c:6759:genIfx *{*
                      00224 ;; ***  genIfx  6760
                      00225 ;; ***  aopForSym 315
                      00226 ;;      327 sym->rname = _Keypad_Update_Keypad_Counter_1_79, size = 2
                      00227 ;; ***  pic14_toBoolean  1515
                      00228 ;; >>> /home/sdcc-builder/build/sdcc-build/orig/sdcc/src/pic14/gen.c:1527:pic14_toBoolean
                      00229 ;;      1009
                      00230 ;;      1028  _Keypad_Update_Keypad_Counter_1_79   offset=0
                      00231         .line   177; "Keypad.c" if(Keypad_Counter !=0)//KEYPAD_PERIOD_MS)
0000   ???? ????      00232         BANKSEL _Keypad_Update_Keypad_Counter_1_79
0002   08??           00233         MOVF    _Keypad_Update_Keypad_Counter_1_79,W
                      00234 ;; >>> /home/sdcc-builder/build/sdcc-build/orig/sdcc/src/pic14/gen.c:1533:pic14_toBoolean
                      00235 ;;      1009
                      00236 ;;      1028  _Keypad_Update_Keypad_Counter_1_79   offset=1
                      00237         .line   179; "Keypad.c" return ;
0003   04??           00238         IORWF   (_Keypad_Update_Keypad_Counter_1_79 + 1),W
                      00239         .line   181; "Keypad.c" Keypad_Counter = 0;
0004   1D03           00240         BTFSS   STATUS,2
0005   2???           00241         GOTO    _00208_DS_
0006   01??           00242         CLRF    _Keypad_Update_Keypad_Counter_1_79
0007   01??           00243         CLRF    (_Keypad_Update_Keypad_Counter_1_79 + 1)
                      00244 ;;; /home/sdcc-builder/build/sdcc-build/orig/sdcc/src/pic14/gen.c:2316:resultRemat *{*
                      00245 ;;; /home/sdcc-builder/build/sdcc-build/orig/sdcc/src/pic14/gen.c:2760:genLabel *{*
                      00246 ;; ***  genLabel  2763
                      00247 ;;; /home/sdcc-builder/build/sdcc-build/orig/sdcc/src/pic14/gen.c:2316:resultRemat *{*
                      00248 ;;; /home/sdcc-builder/build/sdcc-build/orig/sdcc/src/pic14/gen.c:2528:genEndFunction *{*
                      00249 ;; ***  genEndFunction  2530
0008                  00250 _00208_DS_
0008   0008           00251         RETURN  
                      00252 ; exit point of _Keypad_Update
                      00253 ;;; /home/sdcc-builder/build/sdcc-build/orig/sdcc/src/pic14/gen.c:7426:genpic14Code *{*
                      00254 
                      00255 ;***
gpasm-1.4.0 #1106 (Oct  6 2014) obj\Debug\Key   7-1-2020  22:33:06          PAGE  6


LOC    OBJECT CODE    LINE  SOURCE TEXT
  VALUE

                      00256 ;  pBlock Stats: dbName = C
                      00257 ;***
                      00258 ;entry:  _Keypad_GetKey ;Function start
                      00259 ; 2 exit points
                      00260 ;has an exit
                      00261 ;functions called:
                      00262 ;   _Keypad_Scan
                      00263 ;   _Keypad_Scan
                      00264 ;; Starting pCode block
                      00265 ;;; /home/sdcc-builder/build/sdcc-build/orig/sdcc/src/pic14/gen.c:2316:resultRemat *{*
                      00266 ;;; /home/sdcc-builder/build/sdcc-build/orig/sdcc/src/pic14/gen.c:2760:genLabel *{*
                      00267 ;; ***  genLabel  2763
                      00268 ;;; /home/sdcc-builder/build/sdcc-build/orig/sdcc/src/pic14/gen.c:2316:resultRemat *{*
                      00269 ;;; /home/sdcc-builder/build/sdcc-build/orig/sdcc/src/pic14/gen.c:2340:genFunction *{*
                      00270 ;; ***  genFunction  2342 curr label offset=24previous max_key=73 
0009                  00271 _Keypad_GetKey  ;Function start
                      00272 ; 2 exit points
                      00273 ;;; /home/sdcc-builder/build/sdcc-build/orig/sdcc/src/pic14/gen.c:2316:resultRemat *{*
                      00274 ;;; /home/sdcc-builder/build/sdcc-build/orig/sdcc/src/pic14/gen.c:2086:genCall *{*
                      00275 ;; ***  genCall  2088
                      00276 ;;; /home/sdcc-builder/build/sdcc-build/orig/sdcc/src/pic14/gen.c:1801:saveRegisters *{*
                      00277 ;; ***  saveRegisters  1803
                      00278 ;; >>> /home/sdcc-builder/build/sdcc-build/orig/sdcc/src/pic14/gen.c:2175:genCall
                      00279         .line   165; "Keypad.c" Character=Keypad_Scan();
0009   2???           00280         CALL    _Keypad_Scan
                      00281 ;; ***  aopForSym 315
                      00282 ;;      327 sym->rname = _Keypad_GetKey_Character_1_77, size = 1
                      00283 ;;; /home/sdcc-builder/build/sdcc-build/orig/sdcc/src/pic14/gen.c:1907:assignResultValue *{*
                      00284 ;; ***  assignResultValue  1909
                      00285 ;;      line = 1911 result -=-, size=0, left AOP_DIR=_Keypad_GetKey_Character_1_77, size=1, right -=-, s
                            ize=0
                      00286 ;; >>> /home/sdcc-builder/build/sdcc-build/orig/sdcc/src/pic14/gen.c:1393:movwf
                      00287 ;;      1009
                      00288 ;;      1028  _Keypad_GetKey_Character_1_77   offset=0
                      00289         .line   166; "Keypad.c" return Character;
000A   ???? ????      00290         BANKSEL _Keypad_GetKey_Character_1_77
000C   00??           00291         MOVWF   _Keypad_GetKey_Character_1_77
000D   0008           00292         RETURN  
                      00293 ; exit point of _Keypad_GetKey
                      00294 ;;; /home/sdcc-builder/build/sdcc-build/orig/sdcc/src/pic14/gen.c:7426:genpic14Code *{*
                      00295 
                      00296 ;***
                      00297 ;  pBlock Stats: dbName = C
                      00298 ;***
                      00299 ;entry:  _Keypad_Scan   ;Function start
                      00300 ; 2 exit points
                      00301 ;has an exit
                      00302 ;functions called:
                      00303 ;   _ResetCols
                      00304 ;   _SetColOne
                      00305 ;   _ResetCols
                      00306 ;   _SetColTwo
                      00307 ;   _ResetCols
gpasm-1.4.0 #1106 (Oct  6 2014) obj\Debug\Key   7-1-2020  22:33:06          PAGE  7


LOC    OBJECT CODE    LINE  SOURCE TEXT
  VALUE

                      00308 ;   _SetColThree
                      00309 ;   _ResetCols
                      00310 ;   _SetColOne
                      00311 ;   _ResetCols
                      00312 ;   _SetColTwo
                      00313 ;   _ResetCols
                      00314 ;   _SetColThree
                      00315 ;2 compiler assigned registers:
                      00316 ;   r0x1004
                      00317 ;   r0x1005
                      00318 ;; Starting pCode block
                      00319 ;;; /home/sdcc-builder/build/sdcc-build/orig/sdcc/src/pic14/gen.c:2316:resultRemat *{*
                      00320 ;;; /home/sdcc-builder/build/sdcc-build/orig/sdcc/src/pic14/gen.c:2760:genLabel *{*
                      00321 ;; ***  genLabel  2763
                      00322 ;;; /home/sdcc-builder/build/sdcc-build/orig/sdcc/src/pic14/gen.c:2316:resultRemat *{*
                      00323 ;;; /home/sdcc-builder/build/sdcc-build/orig/sdcc/src/pic14/gen.c:2340:genFunction *{*
                      00324 ;; ***  genFunction  2342 curr label offset=20previous max_key=0 
000E                  00325 _Keypad_Scan    ;Function start
                      00326 ; 2 exit points
                      00327 ;;; /home/sdcc-builder/build/sdcc-build/orig/sdcc/src/pic14/gen.c:2316:resultRemat *{*
                      00328 ;;; /home/sdcc-builder/build/sdcc-build/orig/sdcc/src/pic14/gen.c:2760:genLabel *{*
                      00329 ;; ***  genLabel  2763
                      00330 ;;; /home/sdcc-builder/build/sdcc-build/orig/sdcc/src/pic14/gen.c:2316:resultRemat *{*
                      00331 ;;; /home/sdcc-builder/build/sdcc-build/orig/sdcc/src/pic14/gen.c:2086:genCall *{*
                      00332 ;; ***  genCall  2088
                      00333 ;;; /home/sdcc-builder/build/sdcc-build/orig/sdcc/src/pic14/gen.c:1801:saveRegisters *{*
                      00334 ;; ***  saveRegisters  1803
                      00335 ;; >>> /home/sdcc-builder/build/sdcc-build/orig/sdcc/src/pic14/gen.c:2175:genCall
000E                  00336 _00195_DS_
                      00337         .line   85; "Keypad.c"  ResetCols();
000E   2???           00338         CALL    _ResetCols
                      00339 ;;; /home/sdcc-builder/build/sdcc-build/orig/sdcc/src/pic14/gen.c:1845:unsaveRegisters *{*
                      00340 ;; ***  unsaveRegisters  1847
                      00341 ;;; /home/sdcc-builder/build/sdcc-build/orig/sdcc/src/pic14/gen.c:2316:resultRemat *{*
                      00342 ;;; /home/sdcc-builder/build/sdcc-build/orig/sdcc/src/pic14/gen.c:2086:genCall *{*
                      00343 ;; ***  genCall  2088
                      00344 ;;; /home/sdcc-builder/build/sdcc-build/orig/sdcc/src/pic14/gen.c:1801:saveRegisters *{*
                      00345 ;; ***  saveRegisters  1803
                      00346 ;; >>> /home/sdcc-builder/build/sdcc-build/orig/sdcc/src/pic14/gen.c:2175:genCall
                      00347         .line   86; "Keypad.c"  SetColOne();
000F   2???           00348         CALL    _SetColOne
                      00349 ;;; /home/sdcc-builder/build/sdcc-build/orig/sdcc/src/pic14/gen.c:1845:unsaveRegisters *{*
                      00350 ;; ***  unsaveRegisters  1847
                      00351 ;;; /home/sdcc-builder/build/sdcc-build/orig/sdcc/src/pic14/gen.c:2316:resultRemat *{*
                      00352 ;;; /home/sdcc-builder/build/sdcc-build/orig/sdcc/src/pic14/gen.c:3919:genAnd *{*
                      00353 ;; ***  genAnd  3920
                      00354 ;; ***  aopForSym 315
                      00355 ;;      327 sym->rname = _TRISD, size = 1
                      00356 ;;      694 register type nRegs=1
                      00357 ;;      line = 3955 result AOP_REG=r0x104D, size=1, left AOP_DIR=_TRISD, size=1, right AOP_LIT=0x08, siz
                            e=1
                      00358 ;; >>> /home/sdcc-builder/build/sdcc-build/orig/sdcc/src/pic14/gen.c:4190:genAnd
                      00359         .line   87; "Keypad.c"  if(GPIO_ReadPortPin(KEYPAD_ROW1_CR,Keypad_Row1)==0)
gpasm-1.4.0 #1106 (Oct  6 2014) obj\Debug\Key   7-1-2020  22:33:06          PAGE  8


LOC    OBJECT CODE    LINE  SOURCE TEXT
  VALUE

0010   3008           00360         MOVLW   0x08
                      00361 ;; >>> /home/sdcc-builder/build/sdcc-build/orig/sdcc/src/pic14/gen.c:4191:genAnd
                      00362 ;;      1009
                      00363 ;;      1024  _TRISD   offset=0 - had to alloc by reg name
0011   ???? ????      00364         BANKSEL _TRISD
0013   05??           00365         ANDWF   _TRISD,W
                      00366 ;; >>> /home/sdcc-builder/build/sdcc-build/orig/sdcc/src/pic14/gen.c:4192:genAnd
                      00367 ;;      1109 rIdx = r0x104D 
0014   ???? ????      00368         BANKSEL r0x1004
0016   00??           00369         MOVWF   r0x1004
                      00370 ;;; /home/sdcc-builder/build/sdcc-build/orig/sdcc/src/pic14/gen.c:2316:resultRemat *{*
                      00371 ;;; /home/sdcc-builder/build/sdcc-build/orig/sdcc/src/pic14/gen.c:5418:genGenericShift *{*
                      00372 ;; ***  genGenericShift  5421
                      00373 ;;      694 register type nRegs=1
                      00374 ;;      694 register type nRegs=1
                      00375 ;;shiftRight_Left2ResultLit:5273: shCount=1, size=1, sign=0, same=0, offr=0
                      00376 ;; >>> /home/sdcc-builder/build/sdcc-build/orig/sdcc/src/pic14/gen.c:5283:shiftRight_Left2ResultLit
0017   1003           00377         BCF     STATUS,0
                      00378 ;; >>> /home/sdcc-builder/build/sdcc-build/orig/sdcc/src/pic14/gen.c:5297:shiftRight_Left2ResultLit
                      00379 ;;      1109 rIdx = r0x104D 
0018   0C??           00380         RRF     r0x1004,W
                      00381 ;; >>> /home/sdcc-builder/build/sdcc-build/orig/sdcc/src/pic14/gen.c:5298:shiftRight_Left2ResultLit
                      00382 ;;      1109 rIdx = r0x104E 
0019   00??           00383         MOVWF   r0x1005
                      00384 ;; ***  addSign  861
                      00385 ;;; /home/sdcc-builder/build/sdcc-build/orig/sdcc/src/pic14/genarith.c:862:addSign *{*
                      00386 ;;shiftRight_Left2ResultLit:5273: shCount=1, size=1, sign=0, same=1, offr=0
                      00387 ;; >>> /home/sdcc-builder/build/sdcc-build/orig/sdcc/src/pic14/gen.c:5283:shiftRight_Left2ResultLit
001A   1003           00388         BCF     STATUS,0
                      00389 ;; >>> /home/sdcc-builder/build/sdcc-build/orig/sdcc/src/pic14/gen.c:5293:shiftRight_Left2ResultLit
                      00390 ;;      1109 rIdx = r0x104E 
001B   0C??           00391         RRF     r0x1005,F
                      00392 ;; ***  addSign  861
                      00393 ;;; /home/sdcc-builder/build/sdcc-build/orig/sdcc/src/pic14/genarith.c:862:addSign *{*
                      00394 ;;shiftRight_Left2ResultLit:5273: shCount=1, size=1, sign=0, same=1, offr=0
                      00395 ;; >>> /home/sdcc-builder/build/sdcc-build/orig/sdcc/src/pic14/gen.c:5283:shiftRight_Left2ResultLit
001C   1003           00396         BCF     STATUS,0
                      00397 ;; >>> /home/sdcc-builder/build/sdcc-build/orig/sdcc/src/pic14/gen.c:5293:shiftRight_Left2ResultLit
                      00398 ;;      1109 rIdx = r0x104E 
001D   0C??           00399         RRF     r0x1005,F
                      00400 ;; ***  addSign  861
                      00401 ;;; /home/sdcc-builder/build/sdcc-build/orig/sdcc/src/pic14/genarith.c:862:addSign *{*
                      00402 ;;; /home/sdcc-builder/build/sdcc-build/orig/sdcc/src/pic14/gen.c:2316:resultRemat *{*
                      00403 ;;; /home/sdcc-builder/build/sdcc-build/orig/sdcc/src/pic14/gen.c:6759:genIfx *{*
                      00404 ;; ***  genIfx  6760
                      00405 ;; ***  pic14_toBoolean  1515
                      00406 ;; >>> /home/sdcc-builder/build/sdcc-build/orig/sdcc/src/pic14/gen.c:1522:pic14_toBoolean
001E   08??           00407         MOVF    r0x1005,W
001F   1D03           00408         BTFSS   STATUS,2
                      00409 ;; >>> /home/sdcc-builder/build/sdcc-build/orig/sdcc/src/pic14/gen.c:6809:genIfx
                      00410 ;; ***  popGetLabel  key=22, label offset 24
0020   2???           00411         GOTO    _00146_DS_
                      00412 ;;; /home/sdcc-builder/build/sdcc-build/orig/sdcc/src/pic14/gen.c:2316:resultRemat *{*
gpasm-1.4.0 #1106 (Oct  6 2014) obj\Debug\Key   7-1-2020  22:33:06          PAGE  9


LOC    OBJECT CODE    LINE  SOURCE TEXT
  VALUE

                      00413 ;;; /home/sdcc-builder/build/sdcc-build/orig/sdcc/src/pic14/gen.c:2760:genLabel *{*
                      00414 ;; ***  genLabel  2763
                      00415 ;;; /home/sdcc-builder/build/sdcc-build/orig/sdcc/src/pic14/gen.c:2316:resultRemat *{*
                      00416 ;;; /home/sdcc-builder/build/sdcc-build/orig/sdcc/src/pic14/gen.c:3919:genAnd *{*
                      00417 ;; ***  genAnd  3920
                      00418 ;; ***  aopForSym 315
                      00419 ;;      327 sym->rname = _TRISD, size = 1
                      00420 ;;      694 register type nRegs=1
                      00421 ;;      line = 3955 result AOP_REG=r0x104D, size=1, left AOP_DIR=_TRISD, size=1, right AOP_LIT=0x08, siz
                            e=1
                      00422 ;; >>> /home/sdcc-builder/build/sdcc-build/orig/sdcc/src/pic14/gen.c:4190:genAnd
0021                  00423 _00125_DS_
                      00424         .line   89; "Keypad.c"  while(GPIO_ReadPortPin(KEYPAD_ROW1_CR,Keypad_Row1)==0);
0021   3008           00425         MOVLW   0x08
                      00426 ;; >>> /home/sdcc-builder/build/sdcc-build/orig/sdcc/src/pic14/gen.c:4191:genAnd
                      00427 ;;      1009
                      00428 ;;      1028  _TRISD   offset=0
0022   ???? ????      00429         BANKSEL _TRISD
0024   05??           00430         ANDWF   _TRISD,W
                      00431 ;; >>> /home/sdcc-builder/build/sdcc-build/orig/sdcc/src/pic14/gen.c:4192:genAnd
                      00432 ;;      1109 rIdx = r0x104D 
0025   ???? ????      00433         BANKSEL r0x1004
0027   00??           00434         MOVWF   r0x1004
                      00435 ;;; /home/sdcc-builder/build/sdcc-build/orig/sdcc/src/pic14/gen.c:2316:resultRemat *{*
                      00436 ;;; /home/sdcc-builder/build/sdcc-build/orig/sdcc/src/pic14/gen.c:5418:genGenericShift *{*
                      00437 ;; ***  genGenericShift  5421
                      00438 ;;      694 register type nRegs=1
                      00439 ;;      694 register type nRegs=1
                      00440 ;;shiftRight_Left2ResultLit:5273: shCount=1, size=1, sign=0, same=0, offr=0
                      00441 ;; >>> /home/sdcc-builder/build/sdcc-build/orig/sdcc/src/pic14/gen.c:5283:shiftRight_Left2ResultLit
0028   1003           00442         BCF     STATUS,0
                      00443 ;; >>> /home/sdcc-builder/build/sdcc-build/orig/sdcc/src/pic14/gen.c:5297:shiftRight_Left2ResultLit
                      00444 ;;      1109 rIdx = r0x104D 
0029   0C??           00445         RRF     r0x1004,W
                      00446 ;; >>> /home/sdcc-builder/build/sdcc-build/orig/sdcc/src/pic14/gen.c:5298:shiftRight_Left2ResultLit
                      00447 ;;      1109 rIdx = r0x104E 
002A   00??           00448         MOVWF   r0x1005
                      00449 ;; ***  addSign  861
                      00450 ;;; /home/sdcc-builder/build/sdcc-build/orig/sdcc/src/pic14/genarith.c:862:addSign *{*
                      00451 ;;shiftRight_Left2ResultLit:5273: shCount=1, size=1, sign=0, same=1, offr=0
                      00452 ;; >>> /home/sdcc-builder/build/sdcc-build/orig/sdcc/src/pic14/gen.c:5283:shiftRight_Left2ResultLit
002B   1003           00453         BCF     STATUS,0
                      00454 ;; >>> /home/sdcc-builder/build/sdcc-build/orig/sdcc/src/pic14/gen.c:5293:shiftRight_Left2ResultLit
                      00455 ;;      1109 rIdx = r0x104E 
002C   0C??           00456         RRF     r0x1005,F
                      00457 ;; ***  addSign  861
                      00458 ;;; /home/sdcc-builder/build/sdcc-build/orig/sdcc/src/pic14/genarith.c:862:addSign *{*
                      00459 ;;shiftRight_Left2ResultLit:5273: shCount=1, size=1, sign=0, same=1, offr=0
                      00460 ;; >>> /home/sdcc-builder/build/sdcc-build/orig/sdcc/src/pic14/gen.c:5283:shiftRight_Left2ResultLit
002D   1003           00461         BCF     STATUS,0
                      00462 ;; >>> /home/sdcc-builder/build/sdcc-build/orig/sdcc/src/pic14/gen.c:5293:shiftRight_Left2ResultLit
                      00463 ;;      1109 rIdx = r0x104E 
002E   0C??           00464         RRF     r0x1005,F
gpasm-1.4.0 #1106 (Oct  6 2014) obj\Debug\Key   7-1-2020  22:33:06          PAGE 10


LOC    OBJECT CODE    LINE  SOURCE TEXT
  VALUE

                      00465 ;; ***  addSign  861
                      00466 ;;; /home/sdcc-builder/build/sdcc-build/orig/sdcc/src/pic14/genarith.c:862:addSign *{*
                      00467 ;;; /home/sdcc-builder/build/sdcc-build/orig/sdcc/src/pic14/gen.c:2316:resultRemat *{*
                      00468 ;;; /home/sdcc-builder/build/sdcc-build/orig/sdcc/src/pic14/gen.c:6759:genIfx *{*
                      00469 ;; ***  genIfx  6760
                      00470 ;; ***  pic14_toBoolean  1515
                      00471 ;; >>> /home/sdcc-builder/build/sdcc-build/orig/sdcc/src/pic14/gen.c:1522:pic14_toBoolean
002F   08??           00472         MOVF    r0x1005,W
0030   1903           00473         BTFSC   STATUS,2
                      00474 ;; >>> /home/sdcc-builder/build/sdcc-build/orig/sdcc/src/pic14/gen.c:6814:genIfx
                      00475 ;; ***  popGetLabel  key=1, label offset 24
0031   2???           00476         GOTO    _00125_DS_
                      00477 ;;; /home/sdcc-builder/build/sdcc-build/orig/sdcc/src/pic14/gen.c:2316:resultRemat *{*
                      00478 ;;; /home/sdcc-builder/build/sdcc-build/orig/sdcc/src/pic14/gen.c:2683:genRet *{*
                      00479 ;; ***  genRet  2685
                      00480 ;;; /home/sdcc-builder/build/sdcc-build/orig/sdcc/src/pic14/gen.c:1343:mov2w_op *{*
                      00481 ;; >>> /home/sdcc-builder/build/sdcc-build/orig/sdcc/src/pic14/gen.c:1361:mov2w_op
                      00482         .line   90; "Keypad.c"  return KEY1;
0032   3031           00483         MOVLW   0x31
                      00484 ;; >>> /home/sdcc-builder/build/sdcc-build/orig/sdcc/src/pic14/gen.c:2709:genRet
                      00485 ;; ***  popGetLabel  key=73, label offset 24
0033   2???           00486         GOTO    _00197_DS_
                      00487 ;;; /home/sdcc-builder/build/sdcc-build/orig/sdcc/src/pic14/gen.c:2316:resultRemat *{*
                      00488 ;;; /home/sdcc-builder/build/sdcc-build/orig/sdcc/src/pic14/gen.c:2760:genLabel *{*
                      00489 ;; ***  genLabel  2763
                      00490 ;;; /home/sdcc-builder/build/sdcc-build/orig/sdcc/src/pic14/gen.c:2316:resultRemat *{*
                      00491 ;;; /home/sdcc-builder/build/sdcc-build/orig/sdcc/src/pic14/gen.c:3919:genAnd *{*
                      00492 ;; ***  genAnd  3920
                      00493 ;; ***  aopForSym 315
                      00494 ;;      327 sym->rname = _TRISD, size = 1
                      00495 ;;      694 register type nRegs=1
                      00496 ;;      line = 3955 result AOP_REG=r0x104D, size=1, left AOP_DIR=_TRISD, size=1, right AOP_LIT=0x04, siz
                            e=1
                      00497 ;; >>> /home/sdcc-builder/build/sdcc-build/orig/sdcc/src/pic14/gen.c:4190:genAnd
0034                  00498 _00146_DS_
                      00499         .line   92; "Keypad.c"  else if(GPIO_ReadPortPin(KEYPAD_ROW2_CR,Keypad_Row2)==0)
0034   3004           00500         MOVLW   0x04
                      00501 ;; >>> /home/sdcc-builder/build/sdcc-build/orig/sdcc/src/pic14/gen.c:4191:genAnd
                      00502 ;;      1009
                      00503 ;;      1028  _TRISD   offset=0
0035   ???? ????      00504         BANKSEL _TRISD
0037   05??           00505         ANDWF   _TRISD,W
                      00506 ;; >>> /home/sdcc-builder/build/sdcc-build/orig/sdcc/src/pic14/gen.c:4192:genAnd
                      00507 ;;      1109 rIdx = r0x104D 
0038   ???? ????      00508         BANKSEL r0x1004
003A   00??           00509         MOVWF   r0x1004
                      00510 ;;; /home/sdcc-builder/build/sdcc-build/orig/sdcc/src/pic14/gen.c:2316:resultRemat *{*
                      00511 ;;; /home/sdcc-builder/build/sdcc-build/orig/sdcc/src/pic14/gen.c:5418:genGenericShift *{*
                      00512 ;; ***  genGenericShift  5421
                      00513 ;;      694 register type nRegs=1
                      00514 ;;      694 register type nRegs=1
                      00515 ;;shiftRight_Left2ResultLit:5273: shCount=1, size=1, sign=0, same=0, offr=0
                      00516 ;; >>> /home/sdcc-builder/build/sdcc-build/orig/sdcc/src/pic14/gen.c:5283:shiftRight_Left2ResultLit
gpasm-1.4.0 #1106 (Oct  6 2014) obj\Debug\Key   7-1-2020  22:33:06          PAGE 11


LOC    OBJECT CODE    LINE  SOURCE TEXT
  VALUE

003B   1003           00517         BCF     STATUS,0
                      00518 ;; >>> /home/sdcc-builder/build/sdcc-build/orig/sdcc/src/pic14/gen.c:5297:shiftRight_Left2ResultLit
                      00519 ;;      1109 rIdx = r0x104D 
003C   0C??           00520         RRF     r0x1004,W
                      00521 ;; >>> /home/sdcc-builder/build/sdcc-build/orig/sdcc/src/pic14/gen.c:5298:shiftRight_Left2ResultLit
                      00522 ;;      1109 rIdx = r0x104E 
003D   00??           00523         MOVWF   r0x1005
                      00524 ;; ***  addSign  861
                      00525 ;;; /home/sdcc-builder/build/sdcc-build/orig/sdcc/src/pic14/genarith.c:862:addSign *{*
                      00526 ;;shiftRight_Left2ResultLit:5273: shCount=1, size=1, sign=0, same=1, offr=0
                      00527 ;; >>> /home/sdcc-builder/build/sdcc-build/orig/sdcc/src/pic14/gen.c:5283:shiftRight_Left2ResultLit
003E   1003           00528         BCF     STATUS,0
                      00529 ;; >>> /home/sdcc-builder/build/sdcc-build/orig/sdcc/src/pic14/gen.c:5293:shiftRight_Left2ResultLit
                      00530 ;;      1109 rIdx = r0x104E 
003F   0C??           00531         RRF     r0x1005,F
                      00532 ;; ***  addSign  861
                      00533 ;;; /home/sdcc-builder/build/sdcc-build/orig/sdcc/src/pic14/genarith.c:862:addSign *{*
                      00534 ;;; /home/sdcc-builder/build/sdcc-build/orig/sdcc/src/pic14/gen.c:2316:resultRemat *{*
                      00535 ;;; /home/sdcc-builder/build/sdcc-build/orig/sdcc/src/pic14/gen.c:6759:genIfx *{*
                      00536 ;; ***  genIfx  6760
                      00537 ;; ***  pic14_toBoolean  1515
                      00538 ;; >>> /home/sdcc-builder/build/sdcc-build/orig/sdcc/src/pic14/gen.c:1522:pic14_toBoolean
0040   08??           00539         MOVF    r0x1005,W
0041   1D03           00540         BTFSS   STATUS,2
                      00541 ;; >>> /home/sdcc-builder/build/sdcc-build/orig/sdcc/src/pic14/gen.c:6809:genIfx
                      00542 ;; ***  popGetLabel  key=19, label offset 24
0042   2???           00543         GOTO    _00143_DS_
                      00544 ;;; /home/sdcc-builder/build/sdcc-build/orig/sdcc/src/pic14/gen.c:2316:resultRemat *{*
                      00545 ;;; /home/sdcc-builder/build/sdcc-build/orig/sdcc/src/pic14/gen.c:2760:genLabel *{*
                      00546 ;; ***  genLabel  2763
                      00547 ;;; /home/sdcc-builder/build/sdcc-build/orig/sdcc/src/pic14/gen.c:2316:resultRemat *{*
                      00548 ;;; /home/sdcc-builder/build/sdcc-build/orig/sdcc/src/pic14/gen.c:3919:genAnd *{*
                      00549 ;; ***  genAnd  3920
                      00550 ;; ***  aopForSym 315
                      00551 ;;      327 sym->rname = _TRISD, size = 1
                      00552 ;;      694 register type nRegs=1
                      00553 ;;      line = 3955 result AOP_REG=r0x104D, size=1, left AOP_DIR=_TRISD, size=1, right AOP_LIT=0x04, siz
                            e=1
                      00554 ;; >>> /home/sdcc-builder/build/sdcc-build/orig/sdcc/src/pic14/gen.c:4190:genAnd
0043                  00555 _00128_DS_
                      00556         .line   94; "Keypad.c"  while(GPIO_ReadPortPin(KEYPAD_ROW2_CR,Keypad_Row2)==0);
0043   3004           00557         MOVLW   0x04
                      00558 ;; >>> /home/sdcc-builder/build/sdcc-build/orig/sdcc/src/pic14/gen.c:4191:genAnd
                      00559 ;;      1009
                      00560 ;;      1028  _TRISD   offset=0
0044   ???? ????      00561         BANKSEL _TRISD
0046   05??           00562         ANDWF   _TRISD,W
                      00563 ;; >>> /home/sdcc-builder/build/sdcc-build/orig/sdcc/src/pic14/gen.c:4192:genAnd
                      00564 ;;      1109 rIdx = r0x104D 
0047   ???? ????      00565         BANKSEL r0x1004
0049   00??           00566         MOVWF   r0x1004
                      00567 ;;; /home/sdcc-builder/build/sdcc-build/orig/sdcc/src/pic14/gen.c:2316:resultRemat *{*
                      00568 ;;; /home/sdcc-builder/build/sdcc-build/orig/sdcc/src/pic14/gen.c:5418:genGenericShift *{*
gpasm-1.4.0 #1106 (Oct  6 2014) obj\Debug\Key   7-1-2020  22:33:06          PAGE 12


LOC    OBJECT CODE    LINE  SOURCE TEXT
  VALUE

                      00569 ;; ***  genGenericShift  5421
                      00570 ;;      694 register type nRegs=1
                      00571 ;;      694 register type nRegs=1
                      00572 ;;shiftRight_Left2ResultLit:5273: shCount=1, size=1, sign=0, same=0, offr=0
                      00573 ;; >>> /home/sdcc-builder/build/sdcc-build/orig/sdcc/src/pic14/gen.c:5283:shiftRight_Left2ResultLit
004A   1003           00574         BCF     STATUS,0
                      00575 ;; >>> /home/sdcc-builder/build/sdcc-build/orig/sdcc/src/pic14/gen.c:5297:shiftRight_Left2ResultLit
                      00576 ;;      1109 rIdx = r0x104D 
004B   0C??           00577         RRF     r0x1004,W
                      00578 ;; >>> /home/sdcc-builder/build/sdcc-build/orig/sdcc/src/pic14/gen.c:5298:shiftRight_Left2ResultLit
                      00579 ;;      1109 rIdx = r0x104E 
004C   00??           00580         MOVWF   r0x1005
                      00581 ;; ***  addSign  861
                      00582 ;;; /home/sdcc-builder/build/sdcc-build/orig/sdcc/src/pic14/genarith.c:862:addSign *{*
                      00583 ;;shiftRight_Left2ResultLit:5273: shCount=1, size=1, sign=0, same=1, offr=0
                      00584 ;; >>> /home/sdcc-builder/build/sdcc-build/orig/sdcc/src/pic14/gen.c:5283:shiftRight_Left2ResultLit
004D   1003           00585         BCF     STATUS,0
                      00586 ;; >>> /home/sdcc-builder/build/sdcc-build/orig/sdcc/src/pic14/gen.c:5293:shiftRight_Left2ResultLit
                      00587 ;;      1109 rIdx = r0x104E 
004E   0C??           00588         RRF     r0x1005,F
                      00589 ;; ***  addSign  861
                      00590 ;;; /home/sdcc-builder/build/sdcc-build/orig/sdcc/src/pic14/genarith.c:862:addSign *{*
                      00591 ;;; /home/sdcc-builder/build/sdcc-build/orig/sdcc/src/pic14/gen.c:2316:resultRemat *{*
                      00592 ;;; /home/sdcc-builder/build/sdcc-build/orig/sdcc/src/pic14/gen.c:6759:genIfx *{*
                      00593 ;; ***  genIfx  6760
                      00594 ;; ***  pic14_toBoolean  1515
                      00595 ;; >>> /home/sdcc-builder/build/sdcc-build/orig/sdcc/src/pic14/gen.c:1522:pic14_toBoolean
004F   08??           00596         MOVF    r0x1005,W
0050   1903           00597         BTFSC   STATUS,2
                      00598 ;; >>> /home/sdcc-builder/build/sdcc-build/orig/sdcc/src/pic14/gen.c:6814:genIfx
                      00599 ;; ***  popGetLabel  key=4, label offset 24
0051   2???           00600         GOTO    _00128_DS_
                      00601 ;;; /home/sdcc-builder/build/sdcc-build/orig/sdcc/src/pic14/gen.c:2316:resultRemat *{*
                      00602 ;;; /home/sdcc-builder/build/sdcc-build/orig/sdcc/src/pic14/gen.c:2683:genRet *{*
                      00603 ;; ***  genRet  2685
                      00604 ;;; /home/sdcc-builder/build/sdcc-build/orig/sdcc/src/pic14/gen.c:1343:mov2w_op *{*
                      00605 ;; >>> /home/sdcc-builder/build/sdcc-build/orig/sdcc/src/pic14/gen.c:1361:mov2w_op
                      00606         .line   95; "Keypad.c"  return KEY4;
0052   3034           00607         MOVLW   0x34
                      00608 ;; >>> /home/sdcc-builder/build/sdcc-build/orig/sdcc/src/pic14/gen.c:2709:genRet
                      00609 ;; ***  popGetLabel  key=73, label offset 24
0053   2???           00610         GOTO    _00197_DS_
                      00611 ;;; /home/sdcc-builder/build/sdcc-build/orig/sdcc/src/pic14/gen.c:2316:resultRemat *{*
                      00612 ;;; /home/sdcc-builder/build/sdcc-build/orig/sdcc/src/pic14/gen.c:2760:genLabel *{*
                      00613 ;; ***  genLabel  2763
                      00614 ;;; /home/sdcc-builder/build/sdcc-build/orig/sdcc/src/pic14/gen.c:2316:resultRemat *{*
                      00615 ;;; /home/sdcc-builder/build/sdcc-build/orig/sdcc/src/pic14/gen.c:3919:genAnd *{*
                      00616 ;; ***  genAnd  3920
                      00617 ;; ***  aopForSym 315
                      00618 ;;      327 sym->rname = _TRISD, size = 1
                      00619 ;;      694 register type nRegs=1
                      00620 ;;      line = 3955 result AOP_REG=r0x104D, size=1, left AOP_DIR=_TRISD, size=1, right AOP_LIT=0x02, siz
                            e=1
gpasm-1.4.0 #1106 (Oct  6 2014) obj\Debug\Key   7-1-2020  22:33:06          PAGE 13


LOC    OBJECT CODE    LINE  SOURCE TEXT
  VALUE

                      00621 ;; >>> /home/sdcc-builder/build/sdcc-build/orig/sdcc/src/pic14/gen.c:4190:genAnd
0054                  00622 _00143_DS_
                      00623         .line   97; "Keypad.c"  else if(GPIO_ReadPortPin(KEYPAD_ROW3_CR,Keypad_Row3)==0)
0054   3002           00624         MOVLW   0x02
                      00625 ;; >>> /home/sdcc-builder/build/sdcc-build/orig/sdcc/src/pic14/gen.c:4191:genAnd
                      00626 ;;      1009
                      00627 ;;      1028  _TRISD   offset=0
0055   ???? ????      00628         BANKSEL _TRISD
0057   05??           00629         ANDWF   _TRISD,W
                      00630 ;; >>> /home/sdcc-builder/build/sdcc-build/orig/sdcc/src/pic14/gen.c:4192:genAnd
                      00631 ;;      1109 rIdx = r0x104D 
0058   ???? ????      00632         BANKSEL r0x1004
005A   00??           00633         MOVWF   r0x1004
                      00634 ;;; /home/sdcc-builder/build/sdcc-build/orig/sdcc/src/pic14/gen.c:2316:resultRemat *{*
                      00635 ;;; /home/sdcc-builder/build/sdcc-build/orig/sdcc/src/pic14/gen.c:5418:genGenericShift *{*
                      00636 ;; ***  genGenericShift  5421
                      00637 ;;      694 register type nRegs=1
                      00638 ;;      694 register type nRegs=1
                      00639 ;;shiftRight_Left2ResultLit:5273: shCount=1, size=1, sign=0, same=0, offr=0
                      00640 ;; >>> /home/sdcc-builder/build/sdcc-build/orig/sdcc/src/pic14/gen.c:5283:shiftRight_Left2ResultLit
005B   1003           00641         BCF     STATUS,0
                      00642 ;; >>> /home/sdcc-builder/build/sdcc-build/orig/sdcc/src/pic14/gen.c:5297:shiftRight_Left2ResultLit
                      00643 ;;      1109 rIdx = r0x104D 
005C   0C??           00644         RRF     r0x1004,W
                      00645 ;; >>> /home/sdcc-builder/build/sdcc-build/orig/sdcc/src/pic14/gen.c:5298:shiftRight_Left2ResultLit
                      00646 ;;      1109 rIdx = r0x104E 
005D   00??           00647         MOVWF   r0x1005
                      00648 ;; ***  addSign  861
                      00649 ;;; /home/sdcc-builder/build/sdcc-build/orig/sdcc/src/pic14/genarith.c:862:addSign *{*
                      00650 ;;; /home/sdcc-builder/build/sdcc-build/orig/sdcc/src/pic14/gen.c:2316:resultRemat *{*
                      00651 ;;; /home/sdcc-builder/build/sdcc-build/orig/sdcc/src/pic14/gen.c:6759:genIfx *{*
                      00652 ;; ***  genIfx  6760
                      00653 ;; ***  pic14_toBoolean  1515
                      00654 ;; >>> /home/sdcc-builder/build/sdcc-build/orig/sdcc/src/pic14/gen.c:1522:pic14_toBoolean
005E   08??           00655         MOVF    r0x1005,W
005F   1D03           00656         BTFSS   STATUS,2
                      00657 ;; >>> /home/sdcc-builder/build/sdcc-build/orig/sdcc/src/pic14/gen.c:6809:genIfx
                      00658 ;; ***  popGetLabel  key=16, label offset 24
0060   2???           00659         GOTO    _00140_DS_
                      00660 ;;; /home/sdcc-builder/build/sdcc-build/orig/sdcc/src/pic14/gen.c:2316:resultRemat *{*
                      00661 ;;; /home/sdcc-builder/build/sdcc-build/orig/sdcc/src/pic14/gen.c:2760:genLabel *{*
                      00662 ;; ***  genLabel  2763
                      00663 ;;; /home/sdcc-builder/build/sdcc-build/orig/sdcc/src/pic14/gen.c:2316:resultRemat *{*
                      00664 ;;; /home/sdcc-builder/build/sdcc-build/orig/sdcc/src/pic14/gen.c:3919:genAnd *{*
                      00665 ;; ***  genAnd  3920
                      00666 ;; ***  aopForSym 315
                      00667 ;;      327 sym->rname = _TRISD, size = 1
                      00668 ;;      694 register type nRegs=1
                      00669 ;;      line = 3955 result AOP_REG=r0x104D, size=1, left AOP_DIR=_TRISD, size=1, right AOP_LIT=0x02, siz
                            e=1
                      00670 ;; >>> /home/sdcc-builder/build/sdcc-build/orig/sdcc/src/pic14/gen.c:4190:genAnd
0061                  00671 _00131_DS_
                      00672         .line   99; "Keypad.c"  while(GPIO_ReadPortPin(KEYPAD_ROW3_CR,Keypad_Row3)==0);
gpasm-1.4.0 #1106 (Oct  6 2014) obj\Debug\Key   7-1-2020  22:33:06          PAGE 14


LOC    OBJECT CODE    LINE  SOURCE TEXT
  VALUE

0061   3002           00673         MOVLW   0x02
                      00674 ;; >>> /home/sdcc-builder/build/sdcc-build/orig/sdcc/src/pic14/gen.c:4191:genAnd
                      00675 ;;      1009
                      00676 ;;      1028  _TRISD   offset=0
0062   ???? ????      00677         BANKSEL _TRISD
0064   05??           00678         ANDWF   _TRISD,W
                      00679 ;; >>> /home/sdcc-builder/build/sdcc-build/orig/sdcc/src/pic14/gen.c:4192:genAnd
                      00680 ;;      1109 rIdx = r0x104D 
0065   ???? ????      00681         BANKSEL r0x1004
0067   00??           00682         MOVWF   r0x1004
                      00683 ;;; /home/sdcc-builder/build/sdcc-build/orig/sdcc/src/pic14/gen.c:2316:resultRemat *{*
                      00684 ;;; /home/sdcc-builder/build/sdcc-build/orig/sdcc/src/pic14/gen.c:5418:genGenericShift *{*
                      00685 ;; ***  genGenericShift  5421
                      00686 ;;      694 register type nRegs=1
                      00687 ;;      694 register type nRegs=1
                      00688 ;;shiftRight_Left2ResultLit:5273: shCount=1, size=1, sign=0, same=0, offr=0
                      00689 ;; >>> /home/sdcc-builder/build/sdcc-build/orig/sdcc/src/pic14/gen.c:5283:shiftRight_Left2ResultLit
0068   1003           00690         BCF     STATUS,0
                      00691 ;; >>> /home/sdcc-builder/build/sdcc-build/orig/sdcc/src/pic14/gen.c:5297:shiftRight_Left2ResultLit
                      00692 ;;      1109 rIdx = r0x104D 
0069   0C??           00693         RRF     r0x1004,W
                      00694 ;; >>> /home/sdcc-builder/build/sdcc-build/orig/sdcc/src/pic14/gen.c:5298:shiftRight_Left2ResultLit
                      00695 ;;      1109 rIdx = r0x104E 
006A   00??           00696         MOVWF   r0x1005
                      00697 ;; ***  addSign  861
                      00698 ;;; /home/sdcc-builder/build/sdcc-build/orig/sdcc/src/pic14/genarith.c:862:addSign *{*
                      00699 ;;; /home/sdcc-builder/build/sdcc-build/orig/sdcc/src/pic14/gen.c:2316:resultRemat *{*
                      00700 ;;; /home/sdcc-builder/build/sdcc-build/orig/sdcc/src/pic14/gen.c:6759:genIfx *{*
                      00701 ;; ***  genIfx  6760
                      00702 ;; ***  pic14_toBoolean  1515
                      00703 ;; >>> /home/sdcc-builder/build/sdcc-build/orig/sdcc/src/pic14/gen.c:1522:pic14_toBoolean
006B   08??           00704         MOVF    r0x1005,W
006C   1903           00705         BTFSC   STATUS,2
                      00706 ;; >>> /home/sdcc-builder/build/sdcc-build/orig/sdcc/src/pic14/gen.c:6814:genIfx
                      00707 ;; ***  popGetLabel  key=7, label offset 24
006D   2???           00708         GOTO    _00131_DS_
                      00709 ;;; /home/sdcc-builder/build/sdcc-build/orig/sdcc/src/pic14/gen.c:2316:resultRemat *{*
                      00710 ;;; /home/sdcc-builder/build/sdcc-build/orig/sdcc/src/pic14/gen.c:2683:genRet *{*
                      00711 ;; ***  genRet  2685
                      00712 ;;; /home/sdcc-builder/build/sdcc-build/orig/sdcc/src/pic14/gen.c:1343:mov2w_op *{*
                      00713 ;; >>> /home/sdcc-builder/build/sdcc-build/orig/sdcc/src/pic14/gen.c:1361:mov2w_op
                      00714         .line   100; "Keypad.c" return KEY7;
006E   3037           00715         MOVLW   0x37
                      00716 ;; >>> /home/sdcc-builder/build/sdcc-build/orig/sdcc/src/pic14/gen.c:2709:genRet
                      00717 ;; ***  popGetLabel  key=73, label offset 24
006F   2???           00718         GOTO    _00197_DS_
                      00719 ;;; /home/sdcc-builder/build/sdcc-build/orig/sdcc/src/pic14/gen.c:2316:resultRemat *{*
                      00720 ;;; /home/sdcc-builder/build/sdcc-build/orig/sdcc/src/pic14/gen.c:2760:genLabel *{*
                      00721 ;; ***  genLabel  2763
                      00722 ;;; /home/sdcc-builder/build/sdcc-build/orig/sdcc/src/pic14/gen.c:2316:resultRemat *{*
                      00723 ;;; /home/sdcc-builder/build/sdcc-build/orig/sdcc/src/pic14/gen.c:3919:genAnd *{*
                      00724 ;; ***  genAnd  3920
                      00725 ;; ***  aopForSym 315
gpasm-1.4.0 #1106 (Oct  6 2014) obj\Debug\Key   7-1-2020  22:33:06          PAGE 15


LOC    OBJECT CODE    LINE  SOURCE TEXT
  VALUE

                      00726 ;;      327 sym->rname = _TRISD, size = 1
                      00727 ;;      694 register type nRegs=1
                      00728 ;;      line = 3955 result AOP_REG=r0x104D, size=1, left AOP_DIR=_TRISD, size=1, right AOP_LIT=0x01, siz
                            e=1
                      00729 ;; >>> /home/sdcc-builder/build/sdcc-build/orig/sdcc/src/pic14/gen.c:4190:genAnd
0070                  00730 _00140_DS_
                      00731         .line   103; "Keypad.c" else if(GPIO_ReadPortPin(KEYPAD_ROW4_CR,Keypad_Row4)==0)
0070   3001           00732         MOVLW   0x01
                      00733 ;; >>> /home/sdcc-builder/build/sdcc-build/orig/sdcc/src/pic14/gen.c:4191:genAnd
                      00734 ;;      1009
                      00735 ;;      1028  _TRISD   offset=0
0071   ???? ????      00736         BANKSEL _TRISD
0073   05??           00737         ANDWF   _TRISD,W
                      00738 ;; >>> /home/sdcc-builder/build/sdcc-build/orig/sdcc/src/pic14/gen.c:4192:genAnd
                      00739 ;;      1109 rIdx = r0x104D 
0074   ???? ????      00740         BANKSEL r0x1004
0076   00??           00741         MOVWF   r0x1004
0077   00??           00742         MOVWF   r0x1005
                      00743 ;; ***  addSign  861
                      00744 ;;; /home/sdcc-builder/build/sdcc-build/orig/sdcc/src/pic14/genarith.c:862:addSign *{*
                      00745 ;;; /home/sdcc-builder/build/sdcc-build/orig/sdcc/src/pic14/gen.c:2316:resultRemat *{*
                      00746 ;;; /home/sdcc-builder/build/sdcc-build/orig/sdcc/src/pic14/gen.c:6759:genIfx *{*
                      00747 ;; ***  genIfx  6760
                      00748 ;; ***  pic14_toBoolean  1515
                      00749 ;; >>> /home/sdcc-builder/build/sdcc-build/orig/sdcc/src/pic14/gen.c:1522:pic14_toBoolean
0078   08??           00750         MOVF    r0x1005,W
0079   1D03           00751         BTFSS   STATUS,2
                      00752 ;; >>> /home/sdcc-builder/build/sdcc-build/orig/sdcc/src/pic14/gen.c:6809:genIfx
                      00753 ;; ***  popGetLabel  key=20, label offset 24
007A   2???           00754         GOTO    _00144_DS_
                      00755 ;;; /home/sdcc-builder/build/sdcc-build/orig/sdcc/src/pic14/gen.c:2316:resultRemat *{*
                      00756 ;;; /home/sdcc-builder/build/sdcc-build/orig/sdcc/src/pic14/gen.c:2760:genLabel *{*
                      00757 ;; ***  genLabel  2763
                      00758 ;;; /home/sdcc-builder/build/sdcc-build/orig/sdcc/src/pic14/gen.c:2316:resultRemat *{*
                      00759 ;;; /home/sdcc-builder/build/sdcc-build/orig/sdcc/src/pic14/gen.c:3919:genAnd *{*
                      00760 ;; ***  genAnd  3920
                      00761 ;; ***  aopForSym 315
                      00762 ;;      327 sym->rname = _TRISD, size = 1
                      00763 ;;      694 register type nRegs=1
                      00764 ;;      line = 3955 result AOP_REG=r0x104D, size=1, left AOP_DIR=_TRISD, size=1, right AOP_LIT=0x01, siz
                            e=1
                      00765 ;; >>> /home/sdcc-builder/build/sdcc-build/orig/sdcc/src/pic14/gen.c:4190:genAnd
007B                  00766 _00134_DS_
                      00767         .line   105; "Keypad.c" while(GPIO_ReadPortPin(KEYPAD_ROW4_CR,Keypad_Row4)==0);
007B   3001           00768         MOVLW   0x01
                      00769 ;; >>> /home/sdcc-builder/build/sdcc-build/orig/sdcc/src/pic14/gen.c:4191:genAnd
                      00770 ;;      1009
                      00771 ;;      1028  _TRISD   offset=0
007C   ???? ????      00772         BANKSEL _TRISD
007E   05??           00773         ANDWF   _TRISD,W
                      00774 ;; >>> /home/sdcc-builder/build/sdcc-build/orig/sdcc/src/pic14/gen.c:4192:genAnd
                      00775 ;;      1109 rIdx = r0x104D 
007F   ???? ????      00776         BANKSEL r0x1004
gpasm-1.4.0 #1106 (Oct  6 2014) obj\Debug\Key   7-1-2020  22:33:06          PAGE 16


LOC    OBJECT CODE    LINE  SOURCE TEXT
  VALUE

0081   00??           00777         MOVWF   r0x1004
0082   00??           00778         MOVWF   r0x1005
                      00779 ;; ***  addSign  861
                      00780 ;;; /home/sdcc-builder/build/sdcc-build/orig/sdcc/src/pic14/genarith.c:862:addSign *{*
                      00781 ;;; /home/sdcc-builder/build/sdcc-build/orig/sdcc/src/pic14/gen.c:2316:resultRemat *{*
                      00782 ;;; /home/sdcc-builder/build/sdcc-build/orig/sdcc/src/pic14/gen.c:6759:genIfx *{*
                      00783 ;; ***  genIfx  6760
                      00784 ;; ***  pic14_toBoolean  1515
                      00785 ;; >>> /home/sdcc-builder/build/sdcc-build/orig/sdcc/src/pic14/gen.c:1522:pic14_toBoolean
0083   08??           00786         MOVF    r0x1005,W
0084   1903           00787         BTFSC   STATUS,2
                      00788 ;; >>> /home/sdcc-builder/build/sdcc-build/orig/sdcc/src/pic14/gen.c:6814:genIfx
                      00789 ;; ***  popGetLabel  key=10, label offset 24
0085   2???           00790         GOTO    _00134_DS_
                      00791 ;;; /home/sdcc-builder/build/sdcc-build/orig/sdcc/src/pic14/gen.c:2316:resultRemat *{*
                      00792 ;;; /home/sdcc-builder/build/sdcc-build/orig/sdcc/src/pic14/gen.c:2683:genRet *{*
                      00793 ;; ***  genRet  2685
                      00794 ;;; /home/sdcc-builder/build/sdcc-build/orig/sdcc/src/pic14/gen.c:1343:mov2w_op *{*
                      00795 ;; >>> /home/sdcc-builder/build/sdcc-build/orig/sdcc/src/pic14/gen.c:1361:mov2w_op
                      00796         .line   106; "Keypad.c" return KEY_CANCEL;
0086   302A           00797         MOVLW   0x2a
                      00798 ;; >>> /home/sdcc-builder/build/sdcc-build/orig/sdcc/src/pic14/gen.c:2709:genRet
                      00799 ;; ***  popGetLabel  key=73, label offset 24
0087   2???           00800         GOTO    _00197_DS_
                      00801 ;;; /home/sdcc-builder/build/sdcc-build/orig/sdcc/src/pic14/gen.c:2316:resultRemat *{*
                      00802 ;;; /home/sdcc-builder/build/sdcc-build/orig/sdcc/src/pic14/gen.c:2760:genLabel *{*
                      00803 ;; ***  genLabel  2763
                      00804 ;;; /home/sdcc-builder/build/sdcc-build/orig/sdcc/src/pic14/gen.c:2316:resultRemat *{*
                      00805 ;;; /home/sdcc-builder/build/sdcc-build/orig/sdcc/src/pic14/gen.c:2086:genCall *{*
                      00806 ;; ***  genCall  2088
                      00807 ;;; /home/sdcc-builder/build/sdcc-build/orig/sdcc/src/pic14/gen.c:1801:saveRegisters *{*
                      00808 ;; ***  saveRegisters  1803
                      00809 ;; >>> /home/sdcc-builder/build/sdcc-build/orig/sdcc/src/pic14/gen.c:2175:genCall
0088                  00810 _00144_DS_
                      00811         .line   109; "Keypad.c" ResetCols();
0088   2???           00812         CALL    _ResetCols
                      00813 ;;; /home/sdcc-builder/build/sdcc-build/orig/sdcc/src/pic14/gen.c:1845:unsaveRegisters *{*
                      00814 ;; ***  unsaveRegisters  1847
                      00815 ;;; /home/sdcc-builder/build/sdcc-build/orig/sdcc/src/pic14/gen.c:2316:resultRemat *{*
                      00816 ;;; /home/sdcc-builder/build/sdcc-build/orig/sdcc/src/pic14/gen.c:2086:genCall *{*
                      00817 ;; ***  genCall  2088
                      00818 ;;; /home/sdcc-builder/build/sdcc-build/orig/sdcc/src/pic14/gen.c:1801:saveRegisters *{*
                      00819 ;; ***  saveRegisters  1803
                      00820 ;; >>> /home/sdcc-builder/build/sdcc-build/orig/sdcc/src/pic14/gen.c:2175:genCall
                      00821         .line   111; "Keypad.c" SetColTwo();
0089   2???           00822         CALL    _SetColTwo
                      00823 ;;; /home/sdcc-builder/build/sdcc-build/orig/sdcc/src/pic14/gen.c:1845:unsaveRegisters *{*
                      00824 ;; ***  unsaveRegisters  1847
                      00825 ;;; /home/sdcc-builder/build/sdcc-build/orig/sdcc/src/pic14/gen.c:2316:resultRemat *{*
                      00826 ;;; /home/sdcc-builder/build/sdcc-build/orig/sdcc/src/pic14/gen.c:3919:genAnd *{*
                      00827 ;; ***  genAnd  3920
                      00828 ;; ***  aopForSym 315
                      00829 ;;      327 sym->rname = _TRISD, size = 1
gpasm-1.4.0 #1106 (Oct  6 2014) obj\Debug\Key   7-1-2020  22:33:06          PAGE 17


LOC    OBJECT CODE    LINE  SOURCE TEXT
  VALUE

                      00830 ;;      694 register type nRegs=1
                      00831 ;;      line = 3955 result AOP_REG=r0x104D, size=1, left AOP_DIR=_TRISD, size=1, right AOP_LIT=0x08, siz
                            e=1
                      00832 ;; >>> /home/sdcc-builder/build/sdcc-build/orig/sdcc/src/pic14/gen.c:4190:genAnd
                      00833         .line   112; "Keypad.c" if(GPIO_ReadPortPin(KEYPAD_ROW1_CR,Keypad_Row1)==0)
008A   3008           00834         MOVLW   0x08
                      00835 ;; >>> /home/sdcc-builder/build/sdcc-build/orig/sdcc/src/pic14/gen.c:4191:genAnd
                      00836 ;;      1009
                      00837 ;;      1028  _TRISD   offset=0
008B   ???? ????      00838         BANKSEL _TRISD
008D   05??           00839         ANDWF   _TRISD,W
                      00840 ;; >>> /home/sdcc-builder/build/sdcc-build/orig/sdcc/src/pic14/gen.c:4192:genAnd
                      00841 ;;      1109 rIdx = r0x104D 
008E   ???? ????      00842         BANKSEL r0x1004
0090   00??           00843         MOVWF   r0x1004
                      00844 ;;; /home/sdcc-builder/build/sdcc-build/orig/sdcc/src/pic14/gen.c:2316:resultRemat *{*
                      00845 ;;; /home/sdcc-builder/build/sdcc-build/orig/sdcc/src/pic14/gen.c:5418:genGenericShift *{*
                      00846 ;; ***  genGenericShift  5421
                      00847 ;;      694 register type nRegs=1
                      00848 ;;      694 register type nRegs=1
                      00849 ;;shiftRight_Left2ResultLit:5273: shCount=1, size=1, sign=0, same=0, offr=0
                      00850 ;; >>> /home/sdcc-builder/build/sdcc-build/orig/sdcc/src/pic14/gen.c:5283:shiftRight_Left2ResultLit
0091   1003           00851         BCF     STATUS,0
                      00852 ;; >>> /home/sdcc-builder/build/sdcc-build/orig/sdcc/src/pic14/gen.c:5297:shiftRight_Left2ResultLit
                      00853 ;;      1109 rIdx = r0x104D 
0092   0C??           00854         RRF     r0x1004,W
                      00855 ;; >>> /home/sdcc-builder/build/sdcc-build/orig/sdcc/src/pic14/gen.c:5298:shiftRight_Left2ResultLit
                      00856 ;;      1109 rIdx = r0x104E 
0093   00??           00857         MOVWF   r0x1005
                      00858 ;; ***  addSign  861
                      00859 ;;; /home/sdcc-builder/build/sdcc-build/orig/sdcc/src/pic14/genarith.c:862:addSign *{*
                      00860 ;;shiftRight_Left2ResultLit:5273: shCount=1, size=1, sign=0, same=1, offr=0
                      00861 ;; >>> /home/sdcc-builder/build/sdcc-build/orig/sdcc/src/pic14/gen.c:5283:shiftRight_Left2ResultLit
0094   1003           00862         BCF     STATUS,0
                      00863 ;; >>> /home/sdcc-builder/build/sdcc-build/orig/sdcc/src/pic14/gen.c:5293:shiftRight_Left2ResultLit
                      00864 ;;      1109 rIdx = r0x104E 
0095   0C??           00865         RRF     r0x1005,F
                      00866 ;; ***  addSign  861
                      00867 ;;; /home/sdcc-builder/build/sdcc-build/orig/sdcc/src/pic14/genarith.c:862:addSign *{*
                      00868 ;;shiftRight_Left2ResultLit:5273: shCount=1, size=1, sign=0, same=1, offr=0
                      00869 ;; >>> /home/sdcc-builder/build/sdcc-build/orig/sdcc/src/pic14/gen.c:5283:shiftRight_Left2ResultLit
0096   1003           00870         BCF     STATUS,0
                      00871 ;; >>> /home/sdcc-builder/build/sdcc-build/orig/sdcc/src/pic14/gen.c:5293:shiftRight_Left2ResultLit
                      00872 ;;      1109 rIdx = r0x104E 
0097   0C??           00873         RRF     r0x1005,F
                      00874 ;; ***  addSign  861
                      00875 ;;; /home/sdcc-builder/build/sdcc-build/orig/sdcc/src/pic14/genarith.c:862:addSign *{*
                      00876 ;;; /home/sdcc-builder/build/sdcc-build/orig/sdcc/src/pic14/gen.c:2316:resultRemat *{*
                      00877 ;;; /home/sdcc-builder/build/sdcc-build/orig/sdcc/src/pic14/gen.c:6759:genIfx *{*
                      00878 ;; ***  genIfx  6760
                      00879 ;; ***  pic14_toBoolean  1515
                      00880 ;; >>> /home/sdcc-builder/build/sdcc-build/orig/sdcc/src/pic14/gen.c:1522:pic14_toBoolean
0098   08??           00881         MOVF    r0x1005,W
gpasm-1.4.0 #1106 (Oct  6 2014) obj\Debug\Key   7-1-2020  22:33:06          PAGE 18


LOC    OBJECT CODE    LINE  SOURCE TEXT
  VALUE

0099   1D03           00882         BTFSS   STATUS,2
                      00883 ;; >>> /home/sdcc-builder/build/sdcc-build/orig/sdcc/src/pic14/gen.c:6809:genIfx
                      00884 ;; ***  popGetLabel  key=45, label offset 24
009A   2???           00885         GOTO    _00169_DS_
                      00886 ;;; /home/sdcc-builder/build/sdcc-build/orig/sdcc/src/pic14/gen.c:2316:resultRemat *{*
                      00887 ;;; /home/sdcc-builder/build/sdcc-build/orig/sdcc/src/pic14/gen.c:2760:genLabel *{*
                      00888 ;; ***  genLabel  2763
                      00889 ;;; /home/sdcc-builder/build/sdcc-build/orig/sdcc/src/pic14/gen.c:2316:resultRemat *{*
                      00890 ;;; /home/sdcc-builder/build/sdcc-build/orig/sdcc/src/pic14/gen.c:3919:genAnd *{*
                      00891 ;; ***  genAnd  3920
                      00892 ;; ***  aopForSym 315
                      00893 ;;      327 sym->rname = _TRISD, size = 1
                      00894 ;;      694 register type nRegs=1
                      00895 ;;      line = 3955 result AOP_REG=r0x104D, size=1, left AOP_DIR=_TRISD, size=1, right AOP_LIT=0x08, siz
                            e=1
                      00896 ;; >>> /home/sdcc-builder/build/sdcc-build/orig/sdcc/src/pic14/gen.c:4190:genAnd
009B                  00897 _00148_DS_
                      00898         .line   114; "Keypad.c" while(GPIO_ReadPortPin(KEYPAD_ROW1_CR,Keypad_Row1)==0);
009B   3008           00899         MOVLW   0x08
                      00900 ;; >>> /home/sdcc-builder/build/sdcc-build/orig/sdcc/src/pic14/gen.c:4191:genAnd
                      00901 ;;      1009
                      00902 ;;      1028  _TRISD   offset=0
009C   ???? ????      00903         BANKSEL _TRISD
009E   05??           00904         ANDWF   _TRISD,W
                      00905 ;; >>> /home/sdcc-builder/build/sdcc-build/orig/sdcc/src/pic14/gen.c:4192:genAnd
                      00906 ;;      1109 rIdx = r0x104D 
009F   ???? ????      00907         BANKSEL r0x1004
00A1   00??           00908         MOVWF   r0x1004
                      00909 ;;; /home/sdcc-builder/build/sdcc-build/orig/sdcc/src/pic14/gen.c:2316:resultRemat *{*
                      00910 ;;; /home/sdcc-builder/build/sdcc-build/orig/sdcc/src/pic14/gen.c:5418:genGenericShift *{*
                      00911 ;; ***  genGenericShift  5421
                      00912 ;;      694 register type nRegs=1
                      00913 ;;      694 register type nRegs=1
                      00914 ;;shiftRight_Left2ResultLit:5273: shCount=1, size=1, sign=0, same=0, offr=0
                      00915 ;; >>> /home/sdcc-builder/build/sdcc-build/orig/sdcc/src/pic14/gen.c:5283:shiftRight_Left2ResultLit
00A2   1003           00916         BCF     STATUS,0
                      00917 ;; >>> /home/sdcc-builder/build/sdcc-build/orig/sdcc/src/pic14/gen.c:5297:shiftRight_Left2ResultLit
                      00918 ;;      1109 rIdx = r0x104D 
00A3   0C??           00919         RRF     r0x1004,W
                      00920 ;; >>> /home/sdcc-builder/build/sdcc-build/orig/sdcc/src/pic14/gen.c:5298:shiftRight_Left2ResultLit
                      00921 ;;      1109 rIdx = r0x104E 
00A4   00??           00922         MOVWF   r0x1005
                      00923 ;; ***  addSign  861
                      00924 ;;; /home/sdcc-builder/build/sdcc-build/orig/sdcc/src/pic14/genarith.c:862:addSign *{*
                      00925 ;;shiftRight_Left2ResultLit:5273: shCount=1, size=1, sign=0, same=1, offr=0
                      00926 ;; >>> /home/sdcc-builder/build/sdcc-build/orig/sdcc/src/pic14/gen.c:5283:shiftRight_Left2ResultLit
00A5   1003           00927         BCF     STATUS,0
                      00928 ;; >>> /home/sdcc-builder/build/sdcc-build/orig/sdcc/src/pic14/gen.c:5293:shiftRight_Left2ResultLit
                      00929 ;;      1109 rIdx = r0x104E 
00A6   0C??           00930         RRF     r0x1005,F
                      00931 ;; ***  addSign  861
                      00932 ;;; /home/sdcc-builder/build/sdcc-build/orig/sdcc/src/pic14/genarith.c:862:addSign *{*
                      00933 ;;shiftRight_Left2ResultLit:5273: shCount=1, size=1, sign=0, same=1, offr=0
gpasm-1.4.0 #1106 (Oct  6 2014) obj\Debug\Key   7-1-2020  22:33:06          PAGE 19


LOC    OBJECT CODE    LINE  SOURCE TEXT
  VALUE

                      00934 ;; >>> /home/sdcc-builder/build/sdcc-build/orig/sdcc/src/pic14/gen.c:5283:shiftRight_Left2ResultLit
00A7   1003           00935         BCF     STATUS,0
                      00936 ;; >>> /home/sdcc-builder/build/sdcc-build/orig/sdcc/src/pic14/gen.c:5293:shiftRight_Left2ResultLit
                      00937 ;;      1109 rIdx = r0x104E 
00A8   0C??           00938         RRF     r0x1005,F
                      00939 ;; ***  addSign  861
                      00940 ;;; /home/sdcc-builder/build/sdcc-build/orig/sdcc/src/pic14/genarith.c:862:addSign *{*
                      00941 ;;; /home/sdcc-builder/build/sdcc-build/orig/sdcc/src/pic14/gen.c:2316:resultRemat *{*
                      00942 ;;; /home/sdcc-builder/build/sdcc-build/orig/sdcc/src/pic14/gen.c:6759:genIfx *{*
                      00943 ;; ***  genIfx  6760
                      00944 ;; ***  pic14_toBoolean  1515
                      00945 ;; >>> /home/sdcc-builder/build/sdcc-build/orig/sdcc/src/pic14/gen.c:1522:pic14_toBoolean
00A9   08??           00946         MOVF    r0x1005,W
00AA   1903           00947         BTFSC   STATUS,2
                      00948 ;; >>> /home/sdcc-builder/build/sdcc-build/orig/sdcc/src/pic14/gen.c:6814:genIfx
                      00949 ;; ***  popGetLabel  key=24, label offset 24
00AB   2???           00950         GOTO    _00148_DS_
                      00951 ;;; /home/sdcc-builder/build/sdcc-build/orig/sdcc/src/pic14/gen.c:2316:resultRemat *{*
                      00952 ;;; /home/sdcc-builder/build/sdcc-build/orig/sdcc/src/pic14/gen.c:2683:genRet *{*
                      00953 ;; ***  genRet  2685
                      00954 ;;; /home/sdcc-builder/build/sdcc-build/orig/sdcc/src/pic14/gen.c:1343:mov2w_op *{*
                      00955 ;; >>> /home/sdcc-builder/build/sdcc-build/orig/sdcc/src/pic14/gen.c:1361:mov2w_op
                      00956         .line   115; "Keypad.c" return KEY2;
00AC   3032           00957         MOVLW   0x32
                      00958 ;; >>> /home/sdcc-builder/build/sdcc-build/orig/sdcc/src/pic14/gen.c:2709:genRet
                      00959 ;; ***  popGetLabel  key=73, label offset 24
00AD   2???           00960         GOTO    _00197_DS_
                      00961 ;;; /home/sdcc-builder/build/sdcc-build/orig/sdcc/src/pic14/gen.c:2316:resultRemat *{*
                      00962 ;;; /home/sdcc-builder/build/sdcc-build/orig/sdcc/src/pic14/gen.c:2760:genLabel *{*
                      00963 ;; ***  genLabel  2763
                      00964 ;;; /home/sdcc-builder/build/sdcc-build/orig/sdcc/src/pic14/gen.c:2316:resultRemat *{*
                      00965 ;;; /home/sdcc-builder/build/sdcc-build/orig/sdcc/src/pic14/gen.c:3919:genAnd *{*
                      00966 ;; ***  genAnd  3920
                      00967 ;; ***  aopForSym 315
                      00968 ;;      327 sym->rname = _TRISD, size = 1
                      00969 ;;      694 register type nRegs=1
                      00970 ;;      line = 3955 result AOP_REG=r0x104D, size=1, left AOP_DIR=_TRISD, size=1, right AOP_LIT=0x04, siz
                            e=1
                      00971 ;; >>> /home/sdcc-builder/build/sdcc-build/orig/sdcc/src/pic14/gen.c:4190:genAnd
00AE                  00972 _00169_DS_
                      00973         .line   117; "Keypad.c" else if(GPIO_ReadPortPin(KEYPAD_ROW2_CR,Keypad_Row2)==0)
00AE   3004           00974         MOVLW   0x04
                      00975 ;; >>> /home/sdcc-builder/build/sdcc-build/orig/sdcc/src/pic14/gen.c:4191:genAnd
                      00976 ;;      1009
                      00977 ;;      1028  _TRISD   offset=0
00AF   ???? ????      00978         BANKSEL _TRISD
00B1   05??           00979         ANDWF   _TRISD,W
                      00980 ;; >>> /home/sdcc-builder/build/sdcc-build/orig/sdcc/src/pic14/gen.c:4192:genAnd
                      00981 ;;      1109 rIdx = r0x104D 
00B2   ???? ????      00982         BANKSEL r0x1004
00B4   00??           00983         MOVWF   r0x1004
                      00984 ;;; /home/sdcc-builder/build/sdcc-build/orig/sdcc/src/pic14/gen.c:2316:resultRemat *{*
                      00985 ;;; /home/sdcc-builder/build/sdcc-build/orig/sdcc/src/pic14/gen.c:5418:genGenericShift *{*
gpasm-1.4.0 #1106 (Oct  6 2014) obj\Debug\Key   7-1-2020  22:33:06          PAGE 20


LOC    OBJECT CODE    LINE  SOURCE TEXT
  VALUE

                      00986 ;; ***  genGenericShift  5421
                      00987 ;;      694 register type nRegs=1
                      00988 ;;      694 register type nRegs=1
                      00989 ;;shiftRight_Left2ResultLit:5273: shCount=1, size=1, sign=0, same=0, offr=0
                      00990 ;; >>> /home/sdcc-builder/build/sdcc-build/orig/sdcc/src/pic14/gen.c:5283:shiftRight_Left2ResultLit
00B5   1003           00991         BCF     STATUS,0
                      00992 ;; >>> /home/sdcc-builder/build/sdcc-build/orig/sdcc/src/pic14/gen.c:5297:shiftRight_Left2ResultLit
                      00993 ;;      1109 rIdx = r0x104D 
00B6   0C??           00994         RRF     r0x1004,W
                      00995 ;; >>> /home/sdcc-builder/build/sdcc-build/orig/sdcc/src/pic14/gen.c:5298:shiftRight_Left2ResultLit
                      00996 ;;      1109 rIdx = r0x104E 
00B7   00??           00997         MOVWF   r0x1005
                      00998 ;; ***  addSign  861
                      00999 ;;; /home/sdcc-builder/build/sdcc-build/orig/sdcc/src/pic14/genarith.c:862:addSign *{*
                      01000 ;;shiftRight_Left2ResultLit:5273: shCount=1, size=1, sign=0, same=1, offr=0
                      01001 ;; >>> /home/sdcc-builder/build/sdcc-build/orig/sdcc/src/pic14/gen.c:5283:shiftRight_Left2ResultLit
00B8   1003           01002         BCF     STATUS,0
                      01003 ;; >>> /home/sdcc-builder/build/sdcc-build/orig/sdcc/src/pic14/gen.c:5293:shiftRight_Left2ResultLit
                      01004 ;;      1109 rIdx = r0x104E 
00B9   0C??           01005         RRF     r0x1005,F
                      01006 ;; ***  addSign  861
                      01007 ;;; /home/sdcc-builder/build/sdcc-build/orig/sdcc/src/pic14/genarith.c:862:addSign *{*
                      01008 ;;; /home/sdcc-builder/build/sdcc-build/orig/sdcc/src/pic14/gen.c:2316:resultRemat *{*
                      01009 ;;; /home/sdcc-builder/build/sdcc-build/orig/sdcc/src/pic14/gen.c:6759:genIfx *{*
                      01010 ;; ***  genIfx  6760
                      01011 ;; ***  pic14_toBoolean  1515
                      01012 ;; >>> /home/sdcc-builder/build/sdcc-build/orig/sdcc/src/pic14/gen.c:1522:pic14_toBoolean
00BA   08??           01013         MOVF    r0x1005,W
00BB   1D03           01014         BTFSS   STATUS,2
                      01015 ;; >>> /home/sdcc-builder/build/sdcc-build/orig/sdcc/src/pic14/gen.c:6809:genIfx
                      01016 ;; ***  popGetLabel  key=42, label offset 24
00BC   2???           01017         GOTO    _00166_DS_
                      01018 ;;; /home/sdcc-builder/build/sdcc-build/orig/sdcc/src/pic14/gen.c:2316:resultRemat *{*
                      01019 ;;; /home/sdcc-builder/build/sdcc-build/orig/sdcc/src/pic14/gen.c:2760:genLabel *{*
                      01020 ;; ***  genLabel  2763
                      01021 ;;; /home/sdcc-builder/build/sdcc-build/orig/sdcc/src/pic14/gen.c:2316:resultRemat *{*
                      01022 ;;; /home/sdcc-builder/build/sdcc-build/orig/sdcc/src/pic14/gen.c:3919:genAnd *{*
                      01023 ;; ***  genAnd  3920
                      01024 ;; ***  aopForSym 315
                      01025 ;;      327 sym->rname = _TRISD, size = 1
                      01026 ;;      694 register type nRegs=1
                      01027 ;;      line = 3955 result AOP_REG=r0x104D, size=1, left AOP_DIR=_TRISD, size=1, right AOP_LIT=0x04, siz
                            e=1
                      01028 ;; >>> /home/sdcc-builder/build/sdcc-build/orig/sdcc/src/pic14/gen.c:4190:genAnd
00BD                  01029 _00151_DS_
                      01030         .line   119; "Keypad.c" while(GPIO_ReadPortPin(KEYPAD_ROW2_CR,Keypad_Row2)==0);
00BD   3004           01031         MOVLW   0x04
                      01032 ;; >>> /home/sdcc-builder/build/sdcc-build/orig/sdcc/src/pic14/gen.c:4191:genAnd
                      01033 ;;      1009
                      01034 ;;      1028  _TRISD   offset=0
00BE   ???? ????      01035         BANKSEL _TRISD
00C0   05??           01036         ANDWF   _TRISD,W
                      01037 ;; >>> /home/sdcc-builder/build/sdcc-build/orig/sdcc/src/pic14/gen.c:4192:genAnd
gpasm-1.4.0 #1106 (Oct  6 2014) obj\Debug\Key   7-1-2020  22:33:06          PAGE 21


LOC    OBJECT CODE    LINE  SOURCE TEXT
  VALUE

                      01038 ;;      1109 rIdx = r0x104D 
00C1   ???? ????      01039         BANKSEL r0x1004
00C3   00??           01040         MOVWF   r0x1004
                      01041 ;;; /home/sdcc-builder/build/sdcc-build/orig/sdcc/src/pic14/gen.c:2316:resultRemat *{*
                      01042 ;;; /home/sdcc-builder/build/sdcc-build/orig/sdcc/src/pic14/gen.c:5418:genGenericShift *{*
                      01043 ;; ***  genGenericShift  5421
                      01044 ;;      694 register type nRegs=1
                      01045 ;;      694 register type nRegs=1
                      01046 ;;shiftRight_Left2ResultLit:5273: shCount=1, size=1, sign=0, same=0, offr=0
                      01047 ;; >>> /home/sdcc-builder/build/sdcc-build/orig/sdcc/src/pic14/gen.c:5283:shiftRight_Left2ResultLit
00C4   1003           01048         BCF     STATUS,0
                      01049 ;; >>> /home/sdcc-builder/build/sdcc-build/orig/sdcc/src/pic14/gen.c:5297:shiftRight_Left2ResultLit
                      01050 ;;      1109 rIdx = r0x104D 
00C5   0C??           01051         RRF     r0x1004,W
                      01052 ;; >>> /home/sdcc-builder/build/sdcc-build/orig/sdcc/src/pic14/gen.c:5298:shiftRight_Left2ResultLit
                      01053 ;;      1109 rIdx = r0x104E 
00C6   00??           01054         MOVWF   r0x1005
                      01055 ;; ***  addSign  861
                      01056 ;;; /home/sdcc-builder/build/sdcc-build/orig/sdcc/src/pic14/genarith.c:862:addSign *{*
                      01057 ;;shiftRight_Left2ResultLit:5273: shCount=1, size=1, sign=0, same=1, offr=0
                      01058 ;; >>> /home/sdcc-builder/build/sdcc-build/orig/sdcc/src/pic14/gen.c:5283:shiftRight_Left2ResultLit
00C7   1003           01059         BCF     STATUS,0
                      01060 ;; >>> /home/sdcc-builder/build/sdcc-build/orig/sdcc/src/pic14/gen.c:5293:shiftRight_Left2ResultLit
                      01061 ;;      1109 rIdx = r0x104E 
00C8   0C??           01062         RRF     r0x1005,F
                      01063 ;; ***  addSign  861
                      01064 ;;; /home/sdcc-builder/build/sdcc-build/orig/sdcc/src/pic14/genarith.c:862:addSign *{*
                      01065 ;;; /home/sdcc-builder/build/sdcc-build/orig/sdcc/src/pic14/gen.c:2316:resultRemat *{*
                      01066 ;;; /home/sdcc-builder/build/sdcc-build/orig/sdcc/src/pic14/gen.c:6759:genIfx *{*
                      01067 ;; ***  genIfx  6760
                      01068 ;; ***  pic14_toBoolean  1515
                      01069 ;; >>> /home/sdcc-builder/build/sdcc-build/orig/sdcc/src/pic14/gen.c:1522:pic14_toBoolean
00C9   08??           01070         MOVF    r0x1005,W
00CA   1903           01071         BTFSC   STATUS,2
                      01072 ;; >>> /home/sdcc-builder/build/sdcc-build/orig/sdcc/src/pic14/gen.c:6814:genIfx
                      01073 ;; ***  popGetLabel  key=27, label offset 24
00CB   2???           01074         GOTO    _00151_DS_
                      01075 ;;; /home/sdcc-builder/build/sdcc-build/orig/sdcc/src/pic14/gen.c:2316:resultRemat *{*
                      01076 ;;; /home/sdcc-builder/build/sdcc-build/orig/sdcc/src/pic14/gen.c:2683:genRet *{*
                      01077 ;; ***  genRet  2685
                      01078 ;;; /home/sdcc-builder/build/sdcc-build/orig/sdcc/src/pic14/gen.c:1343:mov2w_op *{*
                      01079 ;; >>> /home/sdcc-builder/build/sdcc-build/orig/sdcc/src/pic14/gen.c:1361:mov2w_op
                      01080         .line   120; "Keypad.c" return KEY5;
00CC   3035           01081         MOVLW   0x35
                      01082 ;; >>> /home/sdcc-builder/build/sdcc-build/orig/sdcc/src/pic14/gen.c:2709:genRet
                      01083 ;; ***  popGetLabel  key=73, label offset 24
00CD   2???           01084         GOTO    _00197_DS_
                      01085 ;;; /home/sdcc-builder/build/sdcc-build/orig/sdcc/src/pic14/gen.c:2316:resultRemat *{*
                      01086 ;;; /home/sdcc-builder/build/sdcc-build/orig/sdcc/src/pic14/gen.c:2760:genLabel *{*
                      01087 ;; ***  genLabel  2763
                      01088 ;;; /home/sdcc-builder/build/sdcc-build/orig/sdcc/src/pic14/gen.c:2316:resultRemat *{*
                      01089 ;;; /home/sdcc-builder/build/sdcc-build/orig/sdcc/src/pic14/gen.c:3919:genAnd *{*
                      01090 ;; ***  genAnd  3920
gpasm-1.4.0 #1106 (Oct  6 2014) obj\Debug\Key   7-1-2020  22:33:06          PAGE 22


LOC    OBJECT CODE    LINE  SOURCE TEXT
  VALUE

                      01091 ;; ***  aopForSym 315
                      01092 ;;      327 sym->rname = _TRISD, size = 1
                      01093 ;;      694 register type nRegs=1
                      01094 ;;      line = 3955 result AOP_REG=r0x104D, size=1, left AOP_DIR=_TRISD, size=1, right AOP_LIT=0x02, siz
                            e=1
                      01095 ;; >>> /home/sdcc-builder/build/sdcc-build/orig/sdcc/src/pic14/gen.c:4190:genAnd
00CE                  01096 _00166_DS_
                      01097         .line   122; "Keypad.c" else if(GPIO_ReadPortPin(KEYPAD_ROW3_CR,Keypad_Row3)==0)
00CE   3002           01098         MOVLW   0x02
                      01099 ;; >>> /home/sdcc-builder/build/sdcc-build/orig/sdcc/src/pic14/gen.c:4191:genAnd
                      01100 ;;      1009
                      01101 ;;      1028  _TRISD   offset=0
00CF   ???? ????      01102         BANKSEL _TRISD
00D1   05??           01103         ANDWF   _TRISD,W
                      01104 ;; >>> /home/sdcc-builder/build/sdcc-build/orig/sdcc/src/pic14/gen.c:4192:genAnd
                      01105 ;;      1109 rIdx = r0x104D 
00D2   ???? ????      01106         BANKSEL r0x1004
00D4   00??           01107         MOVWF   r0x1004
                      01108 ;;; /home/sdcc-builder/build/sdcc-build/orig/sdcc/src/pic14/gen.c:2316:resultRemat *{*
                      01109 ;;; /home/sdcc-builder/build/sdcc-build/orig/sdcc/src/pic14/gen.c:5418:genGenericShift *{*
                      01110 ;; ***  genGenericShift  5421
                      01111 ;;      694 register type nRegs=1
                      01112 ;;      694 register type nRegs=1
                      01113 ;;shiftRight_Left2ResultLit:5273: shCount=1, size=1, sign=0, same=0, offr=0
                      01114 ;; >>> /home/sdcc-builder/build/sdcc-build/orig/sdcc/src/pic14/gen.c:5283:shiftRight_Left2ResultLit
00D5   1003           01115         BCF     STATUS,0
                      01116 ;; >>> /home/sdcc-builder/build/sdcc-build/orig/sdcc/src/pic14/gen.c:5297:shiftRight_Left2ResultLit
                      01117 ;;      1109 rIdx = r0x104D 
00D6   0C??           01118         RRF     r0x1004,W
                      01119 ;; >>> /home/sdcc-builder/build/sdcc-build/orig/sdcc/src/pic14/gen.c:5298:shiftRight_Left2ResultLit
                      01120 ;;      1109 rIdx = r0x104E 
00D7   00??           01121         MOVWF   r0x1005
                      01122 ;; ***  addSign  861
                      01123 ;;; /home/sdcc-builder/build/sdcc-build/orig/sdcc/src/pic14/genarith.c:862:addSign *{*
                      01124 ;;; /home/sdcc-builder/build/sdcc-build/orig/sdcc/src/pic14/gen.c:2316:resultRemat *{*
                      01125 ;;; /home/sdcc-builder/build/sdcc-build/orig/sdcc/src/pic14/gen.c:6759:genIfx *{*
                      01126 ;; ***  genIfx  6760
                      01127 ;; ***  pic14_toBoolean  1515
                      01128 ;; >>> /home/sdcc-builder/build/sdcc-build/orig/sdcc/src/pic14/gen.c:1522:pic14_toBoolean
00D8   08??           01129         MOVF    r0x1005,W
00D9   1D03           01130         BTFSS   STATUS,2
                      01131 ;; >>> /home/sdcc-builder/build/sdcc-build/orig/sdcc/src/pic14/gen.c:6809:genIfx
                      01132 ;; ***  popGetLabel  key=39, label offset 24
00DA   2???           01133         GOTO    _00163_DS_
                      01134 ;;; /home/sdcc-builder/build/sdcc-build/orig/sdcc/src/pic14/gen.c:2316:resultRemat *{*
                      01135 ;;; /home/sdcc-builder/build/sdcc-build/orig/sdcc/src/pic14/gen.c:2760:genLabel *{*
                      01136 ;; ***  genLabel  2763
                      01137 ;;; /home/sdcc-builder/build/sdcc-build/orig/sdcc/src/pic14/gen.c:2316:resultRemat *{*
                      01138 ;;; /home/sdcc-builder/build/sdcc-build/orig/sdcc/src/pic14/gen.c:3919:genAnd *{*
                      01139 ;; ***  genAnd  3920
                      01140 ;; ***  aopForSym 315
                      01141 ;;      327 sym->rname = _TRISD, size = 1
                      01142 ;;      694 register type nRegs=1
gpasm-1.4.0 #1106 (Oct  6 2014) obj\Debug\Key   7-1-2020  22:33:06          PAGE 23


LOC    OBJECT CODE    LINE  SOURCE TEXT
  VALUE

                      01143 ;;      line = 3955 result AOP_REG=r0x104D, size=1, left AOP_DIR=_TRISD, size=1, right AOP_LIT=0x02, siz
                            e=1
                      01144 ;; >>> /home/sdcc-builder/build/sdcc-build/orig/sdcc/src/pic14/gen.c:4190:genAnd
00DB                  01145 _00154_DS_
                      01146         .line   124; "Keypad.c" while(GPIO_ReadPortPin(KEYPAD_ROW3_CR,Keypad_Row3)==0);
00DB   3002           01147         MOVLW   0x02
                      01148 ;; >>> /home/sdcc-builder/build/sdcc-build/orig/sdcc/src/pic14/gen.c:4191:genAnd
                      01149 ;;      1009
                      01150 ;;      1028  _TRISD   offset=0
00DC   ???? ????      01151         BANKSEL _TRISD
00DE   05??           01152         ANDWF   _TRISD,W
                      01153 ;; >>> /home/sdcc-builder/build/sdcc-build/orig/sdcc/src/pic14/gen.c:4192:genAnd
                      01154 ;;      1109 rIdx = r0x104D 
00DF   ???? ????      01155         BANKSEL r0x1004
00E1   00??           01156         MOVWF   r0x1004
                      01157 ;;; /home/sdcc-builder/build/sdcc-build/orig/sdcc/src/pic14/gen.c:2316:resultRemat *{*
                      01158 ;;; /home/sdcc-builder/build/sdcc-build/orig/sdcc/src/pic14/gen.c:5418:genGenericShift *{*
                      01159 ;; ***  genGenericShift  5421
                      01160 ;;      694 register type nRegs=1
                      01161 ;;      694 register type nRegs=1
                      01162 ;;shiftRight_Left2ResultLit:5273: shCount=1, size=1, sign=0, same=0, offr=0
                      01163 ;; >>> /home/sdcc-builder/build/sdcc-build/orig/sdcc/src/pic14/gen.c:5283:shiftRight_Left2ResultLit
00E2   1003           01164         BCF     STATUS,0
                      01165 ;; >>> /home/sdcc-builder/build/sdcc-build/orig/sdcc/src/pic14/gen.c:5297:shiftRight_Left2ResultLit
                      01166 ;;      1109 rIdx = r0x104D 
00E3   0C??           01167         RRF     r0x1004,W
                      01168 ;; >>> /home/sdcc-builder/build/sdcc-build/orig/sdcc/src/pic14/gen.c:5298:shiftRight_Left2ResultLit
                      01169 ;;      1109 rIdx = r0x104E 
00E4   00??           01170         MOVWF   r0x1005
                      01171 ;; ***  addSign  861
                      01172 ;;; /home/sdcc-builder/build/sdcc-build/orig/sdcc/src/pic14/genarith.c:862:addSign *{*
                      01173 ;;; /home/sdcc-builder/build/sdcc-build/orig/sdcc/src/pic14/gen.c:2316:resultRemat *{*
                      01174 ;;; /home/sdcc-builder/build/sdcc-build/orig/sdcc/src/pic14/gen.c:6759:genIfx *{*
                      01175 ;; ***  genIfx  6760
                      01176 ;; ***  pic14_toBoolean  1515
                      01177 ;; >>> /home/sdcc-builder/build/sdcc-build/orig/sdcc/src/pic14/gen.c:1522:pic14_toBoolean
00E5   08??           01178         MOVF    r0x1005,W
00E6   1903           01179         BTFSC   STATUS,2
                      01180 ;; >>> /home/sdcc-builder/build/sdcc-build/orig/sdcc/src/pic14/gen.c:6814:genIfx
                      01181 ;; ***  popGetLabel  key=30, label offset 24
00E7   2???           01182         GOTO    _00154_DS_
                      01183 ;;; /home/sdcc-builder/build/sdcc-build/orig/sdcc/src/pic14/gen.c:2316:resultRemat *{*
                      01184 ;;; /home/sdcc-builder/build/sdcc-build/orig/sdcc/src/pic14/gen.c:2683:genRet *{*
                      01185 ;; ***  genRet  2685
                      01186 ;;; /home/sdcc-builder/build/sdcc-build/orig/sdcc/src/pic14/gen.c:1343:mov2w_op *{*
                      01187 ;; >>> /home/sdcc-builder/build/sdcc-build/orig/sdcc/src/pic14/gen.c:1361:mov2w_op
                      01188         .line   125; "Keypad.c" return KEY8;
00E8   3038           01189         MOVLW   0x38
                      01190 ;; >>> /home/sdcc-builder/build/sdcc-build/orig/sdcc/src/pic14/gen.c:2709:genRet
                      01191 ;; ***  popGetLabel  key=73, label offset 24
00E9   2???           01192         GOTO    _00197_DS_
                      01193 ;;; /home/sdcc-builder/build/sdcc-build/orig/sdcc/src/pic14/gen.c:2316:resultRemat *{*
                      01194 ;;; /home/sdcc-builder/build/sdcc-build/orig/sdcc/src/pic14/gen.c:2760:genLabel *{*
gpasm-1.4.0 #1106 (Oct  6 2014) obj\Debug\Key   7-1-2020  22:33:06          PAGE 24


LOC    OBJECT CODE    LINE  SOURCE TEXT
  VALUE

                      01195 ;; ***  genLabel  2763
                      01196 ;;; /home/sdcc-builder/build/sdcc-build/orig/sdcc/src/pic14/gen.c:2316:resultRemat *{*
                      01197 ;;; /home/sdcc-builder/build/sdcc-build/orig/sdcc/src/pic14/gen.c:3919:genAnd *{*
                      01198 ;; ***  genAnd  3920
                      01199 ;; ***  aopForSym 315
                      01200 ;;      327 sym->rname = _TRISD, size = 1
                      01201 ;;      694 register type nRegs=1
                      01202 ;;      line = 3955 result AOP_REG=r0x104D, size=1, left AOP_DIR=_TRISD, size=1, right AOP_LIT=0x01, siz
                            e=1
                      01203 ;; >>> /home/sdcc-builder/build/sdcc-build/orig/sdcc/src/pic14/gen.c:4190:genAnd
00EA                  01204 _00163_DS_
                      01205         .line   128; "Keypad.c" else if(GPIO_ReadPortPin(KEYPAD_ROW4_CR,Keypad_Row4)==0)
00EA   3001           01206         MOVLW   0x01
                      01207 ;; >>> /home/sdcc-builder/build/sdcc-build/orig/sdcc/src/pic14/gen.c:4191:genAnd
                      01208 ;;      1009
                      01209 ;;      1028  _TRISD   offset=0
00EB   ???? ????      01210         BANKSEL _TRISD
00ED   05??           01211         ANDWF   _TRISD,W
                      01212 ;; >>> /home/sdcc-builder/build/sdcc-build/orig/sdcc/src/pic14/gen.c:4192:genAnd
                      01213 ;;      1109 rIdx = r0x104D 
00EE   ???? ????      01214         BANKSEL r0x1004
00F0   00??           01215         MOVWF   r0x1004
00F1   00??           01216         MOVWF   r0x1005
                      01217 ;; ***  addSign  861
                      01218 ;;; /home/sdcc-builder/build/sdcc-build/orig/sdcc/src/pic14/genarith.c:862:addSign *{*
                      01219 ;;; /home/sdcc-builder/build/sdcc-build/orig/sdcc/src/pic14/gen.c:2316:resultRemat *{*
                      01220 ;;; /home/sdcc-builder/build/sdcc-build/orig/sdcc/src/pic14/gen.c:6759:genIfx *{*
                      01221 ;; ***  genIfx  6760
                      01222 ;; ***  pic14_toBoolean  1515
                      01223 ;; >>> /home/sdcc-builder/build/sdcc-build/orig/sdcc/src/pic14/gen.c:1522:pic14_toBoolean
00F2   08??           01224         MOVF    r0x1005,W
00F3   1D03           01225         BTFSS   STATUS,2
                      01226 ;; >>> /home/sdcc-builder/build/sdcc-build/orig/sdcc/src/pic14/gen.c:6809:genIfx
                      01227 ;; ***  popGetLabel  key=43, label offset 24
00F4   2???           01228         GOTO    _00167_DS_
                      01229 ;;; /home/sdcc-builder/build/sdcc-build/orig/sdcc/src/pic14/gen.c:2316:resultRemat *{*
                      01230 ;;; /home/sdcc-builder/build/sdcc-build/orig/sdcc/src/pic14/gen.c:2760:genLabel *{*
                      01231 ;; ***  genLabel  2763
                      01232 ;;; /home/sdcc-builder/build/sdcc-build/orig/sdcc/src/pic14/gen.c:2316:resultRemat *{*
                      01233 ;;; /home/sdcc-builder/build/sdcc-build/orig/sdcc/src/pic14/gen.c:3919:genAnd *{*
                      01234 ;; ***  genAnd  3920
                      01235 ;; ***  aopForSym 315
                      01236 ;;      327 sym->rname = _TRISD, size = 1
                      01237 ;;      694 register type nRegs=1
                      01238 ;;      line = 3955 result AOP_REG=r0x104D, size=1, left AOP_DIR=_TRISD, size=1, right AOP_LIT=0x01, siz
                            e=1
                      01239 ;; >>> /home/sdcc-builder/build/sdcc-build/orig/sdcc/src/pic14/gen.c:4190:genAnd
00F5                  01240 _00157_DS_
                      01241         .line   130; "Keypad.c" while(GPIO_ReadPortPin(KEYPAD_ROW4_CR,Keypad_Row4)==0);
00F5   3001           01242         MOVLW   0x01
                      01243 ;; >>> /home/sdcc-builder/build/sdcc-build/orig/sdcc/src/pic14/gen.c:4191:genAnd
                      01244 ;;      1009
                      01245 ;;      1028  _TRISD   offset=0
gpasm-1.4.0 #1106 (Oct  6 2014) obj\Debug\Key   7-1-2020  22:33:06          PAGE 25


LOC    OBJECT CODE    LINE  SOURCE TEXT
  VALUE

00F6   ???? ????      01246         BANKSEL _TRISD
00F8   05??           01247         ANDWF   _TRISD,W
                      01248 ;; >>> /home/sdcc-builder/build/sdcc-build/orig/sdcc/src/pic14/gen.c:4192:genAnd
                      01249 ;;      1109 rIdx = r0x104D 
00F9   ???? ????      01250         BANKSEL r0x1004
00FB   00??           01251         MOVWF   r0x1004
00FC   00??           01252         MOVWF   r0x1005
                      01253 ;; ***  addSign  861
                      01254 ;;; /home/sdcc-builder/build/sdcc-build/orig/sdcc/src/pic14/genarith.c:862:addSign *{*
                      01255 ;;; /home/sdcc-builder/build/sdcc-build/orig/sdcc/src/pic14/gen.c:2316:resultRemat *{*
                      01256 ;;; /home/sdcc-builder/build/sdcc-build/orig/sdcc/src/pic14/gen.c:6759:genIfx *{*
                      01257 ;; ***  genIfx  6760
                      01258 ;; ***  pic14_toBoolean  1515
                      01259 ;; >>> /home/sdcc-builder/build/sdcc-build/orig/sdcc/src/pic14/gen.c:1522:pic14_toBoolean
00FD   08??           01260         MOVF    r0x1005,W
00FE   1903           01261         BTFSC   STATUS,2
                      01262 ;; >>> /home/sdcc-builder/build/sdcc-build/orig/sdcc/src/pic14/gen.c:6814:genIfx
                      01263 ;; ***  popGetLabel  key=33, label offset 24
00FF   2???           01264         GOTO    _00157_DS_
                      01265 ;;; /home/sdcc-builder/build/sdcc-build/orig/sdcc/src/pic14/gen.c:2316:resultRemat *{*
                      01266 ;;; /home/sdcc-builder/build/sdcc-build/orig/sdcc/src/pic14/gen.c:2683:genRet *{*
                      01267 ;; ***  genRet  2685
                      01268 ;;; /home/sdcc-builder/build/sdcc-build/orig/sdcc/src/pic14/gen.c:1343:mov2w_op *{*
                      01269 ;; >>> /home/sdcc-builder/build/sdcc-build/orig/sdcc/src/pic14/gen.c:1361:mov2w_op
                      01270         .line   131; "Keypad.c" return KEY0;
0100   3030           01271         MOVLW   0x30
                      01272 ;; >>> /home/sdcc-builder/build/sdcc-build/orig/sdcc/src/pic14/gen.c:2709:genRet
                      01273 ;; ***  popGetLabel  key=73, label offset 24
0101   2???           01274         GOTO    _00197_DS_
                      01275 ;;; /home/sdcc-builder/build/sdcc-build/orig/sdcc/src/pic14/gen.c:2316:resultRemat *{*
                      01276 ;;; /home/sdcc-builder/build/sdcc-build/orig/sdcc/src/pic14/gen.c:2760:genLabel *{*
                      01277 ;; ***  genLabel  2763
                      01278 ;;; /home/sdcc-builder/build/sdcc-build/orig/sdcc/src/pic14/gen.c:2316:resultRemat *{*
                      01279 ;;; /home/sdcc-builder/build/sdcc-build/orig/sdcc/src/pic14/gen.c:2086:genCall *{*
                      01280 ;; ***  genCall  2088
                      01281 ;;; /home/sdcc-builder/build/sdcc-build/orig/sdcc/src/pic14/gen.c:1801:saveRegisters *{*
                      01282 ;; ***  saveRegisters  1803
                      01283 ;; >>> /home/sdcc-builder/build/sdcc-build/orig/sdcc/src/pic14/gen.c:2175:genCall
0102                  01284 _00167_DS_
                      01285         .line   134; "Keypad.c" ResetCols();
0102   2???           01286         CALL    _ResetCols
                      01287 ;;; /home/sdcc-builder/build/sdcc-build/orig/sdcc/src/pic14/gen.c:1845:unsaveRegisters *{*
                      01288 ;; ***  unsaveRegisters  1847
                      01289 ;;; /home/sdcc-builder/build/sdcc-build/orig/sdcc/src/pic14/gen.c:2316:resultRemat *{*
                      01290 ;;; /home/sdcc-builder/build/sdcc-build/orig/sdcc/src/pic14/gen.c:2086:genCall *{*
                      01291 ;; ***  genCall  2088
                      01292 ;;; /home/sdcc-builder/build/sdcc-build/orig/sdcc/src/pic14/gen.c:1801:saveRegisters *{*
                      01293 ;; ***  saveRegisters  1803
                      01294 ;; >>> /home/sdcc-builder/build/sdcc-build/orig/sdcc/src/pic14/gen.c:2175:genCall
                      01295         .line   135; "Keypad.c" SetColThree();
0103   2???           01296         CALL    _SetColThree
                      01297 ;;; /home/sdcc-builder/build/sdcc-build/orig/sdcc/src/pic14/gen.c:1845:unsaveRegisters *{*
                      01298 ;; ***  unsaveRegisters  1847
gpasm-1.4.0 #1106 (Oct  6 2014) obj\Debug\Key   7-1-2020  22:33:06          PAGE 26


LOC    OBJECT CODE    LINE  SOURCE TEXT
  VALUE

                      01299 ;;; /home/sdcc-builder/build/sdcc-build/orig/sdcc/src/pic14/gen.c:2316:resultRemat *{*
                      01300 ;;; /home/sdcc-builder/build/sdcc-build/orig/sdcc/src/pic14/gen.c:3919:genAnd *{*
                      01301 ;; ***  genAnd  3920
                      01302 ;; ***  aopForSym 315
                      01303 ;;      327 sym->rname = _TRISD, size = 1
                      01304 ;;      694 register type nRegs=1
                      01305 ;;      line = 3955 result AOP_REG=r0x104D, size=1, left AOP_DIR=_TRISD, size=1, right AOP_LIT=0x08, siz
                            e=1
                      01306 ;; >>> /home/sdcc-builder/build/sdcc-build/orig/sdcc/src/pic14/gen.c:4190:genAnd
                      01307         .line   136; "Keypad.c" if(GPIO_ReadPortPin(KEYPAD_ROW1_CR,Keypad_Row1)==0)
0104   3008           01308         MOVLW   0x08
                      01309 ;; >>> /home/sdcc-builder/build/sdcc-build/orig/sdcc/src/pic14/gen.c:4191:genAnd
                      01310 ;;      1009
                      01311 ;;      1028  _TRISD   offset=0
0105   ???? ????      01312         BANKSEL _TRISD
0107   05??           01313         ANDWF   _TRISD,W
                      01314 ;; >>> /home/sdcc-builder/build/sdcc-build/orig/sdcc/src/pic14/gen.c:4192:genAnd
                      01315 ;;      1109 rIdx = r0x104D 
0108   ???? ????      01316         BANKSEL r0x1004
010A   00??           01317         MOVWF   r0x1004
                      01318 ;;; /home/sdcc-builder/build/sdcc-build/orig/sdcc/src/pic14/gen.c:2316:resultRemat *{*
                      01319 ;;; /home/sdcc-builder/build/sdcc-build/orig/sdcc/src/pic14/gen.c:5418:genGenericShift *{*
                      01320 ;; ***  genGenericShift  5421
                      01321 ;;      694 register type nRegs=1
                      01322 ;;      694 register type nRegs=1
                      01323 ;;shiftRight_Left2ResultLit:5273: shCount=1, size=1, sign=0, same=0, offr=0
                      01324 ;; >>> /home/sdcc-builder/build/sdcc-build/orig/sdcc/src/pic14/gen.c:5283:shiftRight_Left2ResultLit
010B   1003           01325         BCF     STATUS,0
                      01326 ;; >>> /home/sdcc-builder/build/sdcc-build/orig/sdcc/src/pic14/gen.c:5297:shiftRight_Left2ResultLit
                      01327 ;;      1109 rIdx = r0x104D 
010C   0C??           01328         RRF     r0x1004,W
                      01329 ;; >>> /home/sdcc-builder/build/sdcc-build/orig/sdcc/src/pic14/gen.c:5298:shiftRight_Left2ResultLit
                      01330 ;;      1109 rIdx = r0x104E 
010D   00??           01331         MOVWF   r0x1005
                      01332 ;; ***  addSign  861
                      01333 ;;; /home/sdcc-builder/build/sdcc-build/orig/sdcc/src/pic14/genarith.c:862:addSign *{*
                      01334 ;;shiftRight_Left2ResultLit:5273: shCount=1, size=1, sign=0, same=1, offr=0
                      01335 ;; >>> /home/sdcc-builder/build/sdcc-build/orig/sdcc/src/pic14/gen.c:5283:shiftRight_Left2ResultLit
010E   1003           01336         BCF     STATUS,0
                      01337 ;; >>> /home/sdcc-builder/build/sdcc-build/orig/sdcc/src/pic14/gen.c:5293:shiftRight_Left2ResultLit
                      01338 ;;      1109 rIdx = r0x104E 
010F   0C??           01339         RRF     r0x1005,F
                      01340 ;; ***  addSign  861
                      01341 ;;; /home/sdcc-builder/build/sdcc-build/orig/sdcc/src/pic14/genarith.c:862:addSign *{*
                      01342 ;;shiftRight_Left2ResultLit:5273: shCount=1, size=1, sign=0, same=1, offr=0
                      01343 ;; >>> /home/sdcc-builder/build/sdcc-build/orig/sdcc/src/pic14/gen.c:5283:shiftRight_Left2ResultLit
0110   1003           01344         BCF     STATUS,0
                      01345 ;; >>> /home/sdcc-builder/build/sdcc-build/orig/sdcc/src/pic14/gen.c:5293:shiftRight_Left2ResultLit
                      01346 ;;      1109 rIdx = r0x104E 
0111   0C??           01347         RRF     r0x1005,F
                      01348 ;; ***  addSign  861
                      01349 ;;; /home/sdcc-builder/build/sdcc-build/orig/sdcc/src/pic14/genarith.c:862:addSign *{*
                      01350 ;;; /home/sdcc-builder/build/sdcc-build/orig/sdcc/src/pic14/gen.c:2316:resultRemat *{*
gpasm-1.4.0 #1106 (Oct  6 2014) obj\Debug\Key   7-1-2020  22:33:06          PAGE 27


LOC    OBJECT CODE    LINE  SOURCE TEXT
  VALUE

                      01351 ;;; /home/sdcc-builder/build/sdcc-build/orig/sdcc/src/pic14/gen.c:6759:genIfx *{*
                      01352 ;; ***  genIfx  6760
                      01353 ;; ***  pic14_toBoolean  1515
                      01354 ;; >>> /home/sdcc-builder/build/sdcc-build/orig/sdcc/src/pic14/gen.c:1522:pic14_toBoolean
0112   08??           01355         MOVF    r0x1005,W
0113   1D03           01356         BTFSS   STATUS,2
                      01357 ;; >>> /home/sdcc-builder/build/sdcc-build/orig/sdcc/src/pic14/gen.c:6809:genIfx
                      01358 ;; ***  popGetLabel  key=68, label offset 24
0114   2???           01359         GOTO    _00192_DS_
                      01360 ;;; /home/sdcc-builder/build/sdcc-build/orig/sdcc/src/pic14/gen.c:2316:resultRemat *{*
                      01361 ;;; /home/sdcc-builder/build/sdcc-build/orig/sdcc/src/pic14/gen.c:2760:genLabel *{*
                      01362 ;; ***  genLabel  2763
                      01363 ;;; /home/sdcc-builder/build/sdcc-build/orig/sdcc/src/pic14/gen.c:2316:resultRemat *{*
                      01364 ;;; /home/sdcc-builder/build/sdcc-build/orig/sdcc/src/pic14/gen.c:3919:genAnd *{*
                      01365 ;; ***  genAnd  3920
                      01366 ;; ***  aopForSym 315
                      01367 ;;      327 sym->rname = _TRISD, size = 1
                      01368 ;;      694 register type nRegs=1
                      01369 ;;      line = 3955 result AOP_REG=r0x104D, size=1, left AOP_DIR=_TRISD, size=1, right AOP_LIT=0x08, siz
                            e=1
                      01370 ;; >>> /home/sdcc-builder/build/sdcc-build/orig/sdcc/src/pic14/gen.c:4190:genAnd
0115                  01371 _00171_DS_
                      01372         .line   138; "Keypad.c" while(GPIO_ReadPortPin(KEYPAD_ROW1_CR,Keypad_Row1)==0);
0115   3008           01373         MOVLW   0x08
                      01374 ;; >>> /home/sdcc-builder/build/sdcc-build/orig/sdcc/src/pic14/gen.c:4191:genAnd
                      01375 ;;      1009
                      01376 ;;      1028  _TRISD   offset=0
0116   ???? ????      01377         BANKSEL _TRISD
0118   05??           01378         ANDWF   _TRISD,W
                      01379 ;; >>> /home/sdcc-builder/build/sdcc-build/orig/sdcc/src/pic14/gen.c:4192:genAnd
                      01380 ;;      1109 rIdx = r0x104D 
0119   ???? ????      01381         BANKSEL r0x1004
011B   00??           01382         MOVWF   r0x1004
                      01383 ;;; /home/sdcc-builder/build/sdcc-build/orig/sdcc/src/pic14/gen.c:2316:resultRemat *{*
                      01384 ;;; /home/sdcc-builder/build/sdcc-build/orig/sdcc/src/pic14/gen.c:5418:genGenericShift *{*
                      01385 ;; ***  genGenericShift  5421
                      01386 ;;      694 register type nRegs=1
                      01387 ;;      694 register type nRegs=1
                      01388 ;;shiftRight_Left2ResultLit:5273: shCount=1, size=1, sign=0, same=0, offr=0
                      01389 ;; >>> /home/sdcc-builder/build/sdcc-build/orig/sdcc/src/pic14/gen.c:5283:shiftRight_Left2ResultLit
011C   1003           01390         BCF     STATUS,0
                      01391 ;; >>> /home/sdcc-builder/build/sdcc-build/orig/sdcc/src/pic14/gen.c:5297:shiftRight_Left2ResultLit
                      01392 ;;      1109 rIdx = r0x104D 
011D   0C??           01393         RRF     r0x1004,W
                      01394 ;; >>> /home/sdcc-builder/build/sdcc-build/orig/sdcc/src/pic14/gen.c:5298:shiftRight_Left2ResultLit
                      01395 ;;      1109 rIdx = r0x104E 
011E   00??           01396         MOVWF   r0x1005
                      01397 ;; ***  addSign  861
                      01398 ;;; /home/sdcc-builder/build/sdcc-build/orig/sdcc/src/pic14/genarith.c:862:addSign *{*
                      01399 ;;shiftRight_Left2ResultLit:5273: shCount=1, size=1, sign=0, same=1, offr=0
                      01400 ;; >>> /home/sdcc-builder/build/sdcc-build/orig/sdcc/src/pic14/gen.c:5283:shiftRight_Left2ResultLit
011F   1003           01401         BCF     STATUS,0
                      01402 ;; >>> /home/sdcc-builder/build/sdcc-build/orig/sdcc/src/pic14/gen.c:5293:shiftRight_Left2ResultLit
gpasm-1.4.0 #1106 (Oct  6 2014) obj\Debug\Key   7-1-2020  22:33:06          PAGE 28


LOC    OBJECT CODE    LINE  SOURCE TEXT
  VALUE

                      01403 ;;      1109 rIdx = r0x104E 
0120   0C??           01404         RRF     r0x1005,F
                      01405 ;; ***  addSign  861
                      01406 ;;; /home/sdcc-builder/build/sdcc-build/orig/sdcc/src/pic14/genarith.c:862:addSign *{*
                      01407 ;;shiftRight_Left2ResultLit:5273: shCount=1, size=1, sign=0, same=1, offr=0
                      01408 ;; >>> /home/sdcc-builder/build/sdcc-build/orig/sdcc/src/pic14/gen.c:5283:shiftRight_Left2ResultLit
0121   1003           01409         BCF     STATUS,0
                      01410 ;; >>> /home/sdcc-builder/build/sdcc-build/orig/sdcc/src/pic14/gen.c:5293:shiftRight_Left2ResultLit
                      01411 ;;      1109 rIdx = r0x104E 
0122   0C??           01412         RRF     r0x1005,F
                      01413 ;; ***  addSign  861
                      01414 ;;; /home/sdcc-builder/build/sdcc-build/orig/sdcc/src/pic14/genarith.c:862:addSign *{*
                      01415 ;;; /home/sdcc-builder/build/sdcc-build/orig/sdcc/src/pic14/gen.c:2316:resultRemat *{*
                      01416 ;;; /home/sdcc-builder/build/sdcc-build/orig/sdcc/src/pic14/gen.c:6759:genIfx *{*
                      01417 ;; ***  genIfx  6760
                      01418 ;; ***  pic14_toBoolean  1515
                      01419 ;; >>> /home/sdcc-builder/build/sdcc-build/orig/sdcc/src/pic14/gen.c:1522:pic14_toBoolean
0123   08??           01420         MOVF    r0x1005,W
0124   1903           01421         BTFSC   STATUS,2
                      01422 ;; >>> /home/sdcc-builder/build/sdcc-build/orig/sdcc/src/pic14/gen.c:6814:genIfx
                      01423 ;; ***  popGetLabel  key=47, label offset 24
0125   2???           01424         GOTO    _00171_DS_
                      01425 ;;; /home/sdcc-builder/build/sdcc-build/orig/sdcc/src/pic14/gen.c:2316:resultRemat *{*
                      01426 ;;; /home/sdcc-builder/build/sdcc-build/orig/sdcc/src/pic14/gen.c:2683:genRet *{*
                      01427 ;; ***  genRet  2685
                      01428 ;;; /home/sdcc-builder/build/sdcc-build/orig/sdcc/src/pic14/gen.c:1343:mov2w_op *{*
                      01429 ;; >>> /home/sdcc-builder/build/sdcc-build/orig/sdcc/src/pic14/gen.c:1361:mov2w_op
                      01430         .line   139; "Keypad.c" return (tByte)KEY3;
0126   3033           01431         MOVLW   0x33
                      01432 ;; >>> /home/sdcc-builder/build/sdcc-build/orig/sdcc/src/pic14/gen.c:2709:genRet
                      01433 ;; ***  popGetLabel  key=73, label offset 24
0127   2???           01434         GOTO    _00197_DS_
                      01435 ;;; /home/sdcc-builder/build/sdcc-build/orig/sdcc/src/pic14/gen.c:2316:resultRemat *{*
                      01436 ;;; /home/sdcc-builder/build/sdcc-build/orig/sdcc/src/pic14/gen.c:2760:genLabel *{*
                      01437 ;; ***  genLabel  2763
                      01438 ;;; /home/sdcc-builder/build/sdcc-build/orig/sdcc/src/pic14/gen.c:2316:resultRemat *{*
                      01439 ;;; /home/sdcc-builder/build/sdcc-build/orig/sdcc/src/pic14/gen.c:3919:genAnd *{*
                      01440 ;; ***  genAnd  3920
                      01441 ;; ***  aopForSym 315
                      01442 ;;      327 sym->rname = _TRISD, size = 1
                      01443 ;;      694 register type nRegs=1
                      01444 ;;      line = 3955 result AOP_REG=r0x104D, size=1, left AOP_DIR=_TRISD, size=1, right AOP_LIT=0x04, siz
                            e=1
                      01445 ;; >>> /home/sdcc-builder/build/sdcc-build/orig/sdcc/src/pic14/gen.c:4190:genAnd
0128                  01446 _00192_DS_
                      01447         .line   141; "Keypad.c" else if(GPIO_ReadPortPin(KEYPAD_ROW2_CR,Keypad_Row2)==0)
0128   3004           01448         MOVLW   0x04
                      01449 ;; >>> /home/sdcc-builder/build/sdcc-build/orig/sdcc/src/pic14/gen.c:4191:genAnd
                      01450 ;;      1009
                      01451 ;;      1028  _TRISD   offset=0
0129   ???? ????      01452         BANKSEL _TRISD
012B   05??           01453         ANDWF   _TRISD,W
                      01454 ;; >>> /home/sdcc-builder/build/sdcc-build/orig/sdcc/src/pic14/gen.c:4192:genAnd
gpasm-1.4.0 #1106 (Oct  6 2014) obj\Debug\Key   7-1-2020  22:33:06          PAGE 29


LOC    OBJECT CODE    LINE  SOURCE TEXT
  VALUE

                      01455 ;;      1109 rIdx = r0x104D 
012C   ???? ????      01456         BANKSEL r0x1004
012E   00??           01457         MOVWF   r0x1004
                      01458 ;;; /home/sdcc-builder/build/sdcc-build/orig/sdcc/src/pic14/gen.c:2316:resultRemat *{*
                      01459 ;;; /home/sdcc-builder/build/sdcc-build/orig/sdcc/src/pic14/gen.c:5418:genGenericShift *{*
                      01460 ;; ***  genGenericShift  5421
                      01461 ;;      694 register type nRegs=1
                      01462 ;;      694 register type nRegs=1
                      01463 ;;shiftRight_Left2ResultLit:5273: shCount=1, size=1, sign=0, same=0, offr=0
                      01464 ;; >>> /home/sdcc-builder/build/sdcc-build/orig/sdcc/src/pic14/gen.c:5283:shiftRight_Left2ResultLit
012F   1003           01465         BCF     STATUS,0
                      01466 ;; >>> /home/sdcc-builder/build/sdcc-build/orig/sdcc/src/pic14/gen.c:5297:shiftRight_Left2ResultLit
                      01467 ;;      1109 rIdx = r0x104D 
0130   0C??           01468         RRF     r0x1004,W
                      01469 ;; >>> /home/sdcc-builder/build/sdcc-build/orig/sdcc/src/pic14/gen.c:5298:shiftRight_Left2ResultLit
                      01470 ;;      1109 rIdx = r0x104E 
0131   00??           01471         MOVWF   r0x1005
                      01472 ;; ***  addSign  861
                      01473 ;;; /home/sdcc-builder/build/sdcc-build/orig/sdcc/src/pic14/genarith.c:862:addSign *{*
                      01474 ;;shiftRight_Left2ResultLit:5273: shCount=1, size=1, sign=0, same=1, offr=0
                      01475 ;; >>> /home/sdcc-builder/build/sdcc-build/orig/sdcc/src/pic14/gen.c:5283:shiftRight_Left2ResultLit
0132   1003           01476         BCF     STATUS,0
                      01477 ;; >>> /home/sdcc-builder/build/sdcc-build/orig/sdcc/src/pic14/gen.c:5293:shiftRight_Left2ResultLit
                      01478 ;;      1109 rIdx = r0x104E 
0133   0C??           01479         RRF     r0x1005,F
                      01480 ;; ***  addSign  861
                      01481 ;;; /home/sdcc-builder/build/sdcc-build/orig/sdcc/src/pic14/genarith.c:862:addSign *{*
                      01482 ;;; /home/sdcc-builder/build/sdcc-build/orig/sdcc/src/pic14/gen.c:2316:resultRemat *{*
                      01483 ;;; /home/sdcc-builder/build/sdcc-build/orig/sdcc/src/pic14/gen.c:6759:genIfx *{*
                      01484 ;; ***  genIfx  6760
                      01485 ;; ***  pic14_toBoolean  1515
                      01486 ;; >>> /home/sdcc-builder/build/sdcc-build/orig/sdcc/src/pic14/gen.c:1522:pic14_toBoolean
0134   08??           01487         MOVF    r0x1005,W
0135   1D03           01488         BTFSS   STATUS,2
                      01489 ;; >>> /home/sdcc-builder/build/sdcc-build/orig/sdcc/src/pic14/gen.c:6809:genIfx
                      01490 ;; ***  popGetLabel  key=65, label offset 24
0136   2???           01491         GOTO    _00189_DS_
                      01492 ;;; /home/sdcc-builder/build/sdcc-build/orig/sdcc/src/pic14/gen.c:2316:resultRemat *{*
                      01493 ;;; /home/sdcc-builder/build/sdcc-build/orig/sdcc/src/pic14/gen.c:2760:genLabel *{*
                      01494 ;; ***  genLabel  2763
                      01495 ;;; /home/sdcc-builder/build/sdcc-build/orig/sdcc/src/pic14/gen.c:2316:resultRemat *{*
                      01496 ;;; /home/sdcc-builder/build/sdcc-build/orig/sdcc/src/pic14/gen.c:3919:genAnd *{*
                      01497 ;; ***  genAnd  3920
                      01498 ;; ***  aopForSym 315
                      01499 ;;      327 sym->rname = _TRISD, size = 1
                      01500 ;;      694 register type nRegs=1
                      01501 ;;      line = 3955 result AOP_REG=r0x104D, size=1, left AOP_DIR=_TRISD, size=1, right AOP_LIT=0x04, siz
                            e=1
                      01502 ;; >>> /home/sdcc-builder/build/sdcc-build/orig/sdcc/src/pic14/gen.c:4190:genAnd
0137                  01503 _00174_DS_
                      01504         .line   143; "Keypad.c" while(GPIO_ReadPortPin(KEYPAD_ROW2_CR,Keypad_Row2)==0);
0137   3004           01505         MOVLW   0x04
                      01506 ;; >>> /home/sdcc-builder/build/sdcc-build/orig/sdcc/src/pic14/gen.c:4191:genAnd
gpasm-1.4.0 #1106 (Oct  6 2014) obj\Debug\Key   7-1-2020  22:33:06          PAGE 30


LOC    OBJECT CODE    LINE  SOURCE TEXT
  VALUE

                      01507 ;;      1009
                      01508 ;;      1028  _TRISD   offset=0
0138   ???? ????      01509         BANKSEL _TRISD
013A   05??           01510         ANDWF   _TRISD,W
                      01511 ;; >>> /home/sdcc-builder/build/sdcc-build/orig/sdcc/src/pic14/gen.c:4192:genAnd
                      01512 ;;      1109 rIdx = r0x104D 
013B   ???? ????      01513         BANKSEL r0x1004
013D   00??           01514         MOVWF   r0x1004
                      01515 ;;; /home/sdcc-builder/build/sdcc-build/orig/sdcc/src/pic14/gen.c:2316:resultRemat *{*
                      01516 ;;; /home/sdcc-builder/build/sdcc-build/orig/sdcc/src/pic14/gen.c:5418:genGenericShift *{*
                      01517 ;; ***  genGenericShift  5421
                      01518 ;;      694 register type nRegs=1
                      01519 ;;      694 register type nRegs=1
                      01520 ;;shiftRight_Left2ResultLit:5273: shCount=1, size=1, sign=0, same=0, offr=0
                      01521 ;; >>> /home/sdcc-builder/build/sdcc-build/orig/sdcc/src/pic14/gen.c:5283:shiftRight_Left2ResultLit
013E   1003           01522         BCF     STATUS,0
                      01523 ;; >>> /home/sdcc-builder/build/sdcc-build/orig/sdcc/src/pic14/gen.c:5297:shiftRight_Left2ResultLit
                      01524 ;;      1109 rIdx = r0x104D 
013F   0C??           01525         RRF     r0x1004,W
                      01526 ;; >>> /home/sdcc-builder/build/sdcc-build/orig/sdcc/src/pic14/gen.c:5298:shiftRight_Left2ResultLit
                      01527 ;;      1109 rIdx = r0x104E 
0140   00??           01528         MOVWF   r0x1005
                      01529 ;; ***  addSign  861
                      01530 ;;; /home/sdcc-builder/build/sdcc-build/orig/sdcc/src/pic14/genarith.c:862:addSign *{*
                      01531 ;;shiftRight_Left2ResultLit:5273: shCount=1, size=1, sign=0, same=1, offr=0
                      01532 ;; >>> /home/sdcc-builder/build/sdcc-build/orig/sdcc/src/pic14/gen.c:5283:shiftRight_Left2ResultLit
0141   1003           01533         BCF     STATUS,0
                      01534 ;; >>> /home/sdcc-builder/build/sdcc-build/orig/sdcc/src/pic14/gen.c:5293:shiftRight_Left2ResultLit
                      01535 ;;      1109 rIdx = r0x104E 
0142   0C??           01536         RRF     r0x1005,F
                      01537 ;; ***  addSign  861
                      01538 ;;; /home/sdcc-builder/build/sdcc-build/orig/sdcc/src/pic14/genarith.c:862:addSign *{*
                      01539 ;;; /home/sdcc-builder/build/sdcc-build/orig/sdcc/src/pic14/gen.c:2316:resultRemat *{*
                      01540 ;;; /home/sdcc-builder/build/sdcc-build/orig/sdcc/src/pic14/gen.c:6759:genIfx *{*
                      01541 ;; ***  genIfx  6760
                      01542 ;; ***  pic14_toBoolean  1515
                      01543 ;; >>> /home/sdcc-builder/build/sdcc-build/orig/sdcc/src/pic14/gen.c:1522:pic14_toBoolean
0143   08??           01544         MOVF    r0x1005,W
0144   1903           01545         BTFSC   STATUS,2
                      01546 ;; >>> /home/sdcc-builder/build/sdcc-build/orig/sdcc/src/pic14/gen.c:6814:genIfx
                      01547 ;; ***  popGetLabel  key=50, label offset 24
0145   2???           01548         GOTO    _00174_DS_
                      01549 ;;; /home/sdcc-builder/build/sdcc-build/orig/sdcc/src/pic14/gen.c:2316:resultRemat *{*
                      01550 ;;; /home/sdcc-builder/build/sdcc-build/orig/sdcc/src/pic14/gen.c:2683:genRet *{*
                      01551 ;; ***  genRet  2685
                      01552 ;;; /home/sdcc-builder/build/sdcc-build/orig/sdcc/src/pic14/gen.c:1343:mov2w_op *{*
                      01553 ;; >>> /home/sdcc-builder/build/sdcc-build/orig/sdcc/src/pic14/gen.c:1361:mov2w_op
                      01554         .line   144; "Keypad.c" return (tByte)KEY6;
0146   3036           01555         MOVLW   0x36
                      01556 ;; >>> /home/sdcc-builder/build/sdcc-build/orig/sdcc/src/pic14/gen.c:2709:genRet
                      01557 ;; ***  popGetLabel  key=73, label offset 24
0147   2???           01558         GOTO    _00197_DS_
                      01559 ;;; /home/sdcc-builder/build/sdcc-build/orig/sdcc/src/pic14/gen.c:2316:resultRemat *{*
gpasm-1.4.0 #1106 (Oct  6 2014) obj\Debug\Key   7-1-2020  22:33:06          PAGE 31


LOC    OBJECT CODE    LINE  SOURCE TEXT
  VALUE

                      01560 ;;; /home/sdcc-builder/build/sdcc-build/orig/sdcc/src/pic14/gen.c:2760:genLabel *{*
                      01561 ;; ***  genLabel  2763
                      01562 ;;; /home/sdcc-builder/build/sdcc-build/orig/sdcc/src/pic14/gen.c:2316:resultRemat *{*
                      01563 ;;; /home/sdcc-builder/build/sdcc-build/orig/sdcc/src/pic14/gen.c:3919:genAnd *{*
                      01564 ;; ***  genAnd  3920
                      01565 ;; ***  aopForSym 315
                      01566 ;;      327 sym->rname = _TRISD, size = 1
                      01567 ;;      694 register type nRegs=1
                      01568 ;;      line = 3955 result AOP_REG=r0x104D, size=1, left AOP_DIR=_TRISD, size=1, right AOP_LIT=0x02, siz
                            e=1
                      01569 ;; >>> /home/sdcc-builder/build/sdcc-build/orig/sdcc/src/pic14/gen.c:4190:genAnd
0148                  01570 _00189_DS_
                      01571         .line   146; "Keypad.c" else if(GPIO_ReadPortPin(KEYPAD_ROW3_CR,Keypad_Row3)==0)
0148   3002           01572         MOVLW   0x02
                      01573 ;; >>> /home/sdcc-builder/build/sdcc-build/orig/sdcc/src/pic14/gen.c:4191:genAnd
                      01574 ;;      1009
                      01575 ;;      1028  _TRISD   offset=0
0149   ???? ????      01576         BANKSEL _TRISD
014B   05??           01577         ANDWF   _TRISD,W
                      01578 ;; >>> /home/sdcc-builder/build/sdcc-build/orig/sdcc/src/pic14/gen.c:4192:genAnd
                      01579 ;;      1109 rIdx = r0x104D 
014C   ???? ????      01580         BANKSEL r0x1004
014E   00??           01581         MOVWF   r0x1004
                      01582 ;;; /home/sdcc-builder/build/sdcc-build/orig/sdcc/src/pic14/gen.c:2316:resultRemat *{*
                      01583 ;;; /home/sdcc-builder/build/sdcc-build/orig/sdcc/src/pic14/gen.c:5418:genGenericShift *{*
                      01584 ;; ***  genGenericShift  5421
                      01585 ;;      694 register type nRegs=1
                      01586 ;;      694 register type nRegs=1
                      01587 ;;shiftRight_Left2ResultLit:5273: shCount=1, size=1, sign=0, same=0, offr=0
                      01588 ;; >>> /home/sdcc-builder/build/sdcc-build/orig/sdcc/src/pic14/gen.c:5283:shiftRight_Left2ResultLit
014F   1003           01589         BCF     STATUS,0
                      01590 ;; >>> /home/sdcc-builder/build/sdcc-build/orig/sdcc/src/pic14/gen.c:5297:shiftRight_Left2ResultLit
                      01591 ;;      1109 rIdx = r0x104D 
0150   0C??           01592         RRF     r0x1004,W
                      01593 ;; >>> /home/sdcc-builder/build/sdcc-build/orig/sdcc/src/pic14/gen.c:5298:shiftRight_Left2ResultLit
                      01594 ;;      1109 rIdx = r0x104E 
0151   00??           01595         MOVWF   r0x1005
                      01596 ;; ***  addSign  861
                      01597 ;;; /home/sdcc-builder/build/sdcc-build/orig/sdcc/src/pic14/genarith.c:862:addSign *{*
                      01598 ;;; /home/sdcc-builder/build/sdcc-build/orig/sdcc/src/pic14/gen.c:2316:resultRemat *{*
                      01599 ;;; /home/sdcc-builder/build/sdcc-build/orig/sdcc/src/pic14/gen.c:6759:genIfx *{*
                      01600 ;; ***  genIfx  6760
                      01601 ;; ***  pic14_toBoolean  1515
                      01602 ;; >>> /home/sdcc-builder/build/sdcc-build/orig/sdcc/src/pic14/gen.c:1522:pic14_toBoolean
0152   08??           01603         MOVF    r0x1005,W
0153   1D03           01604         BTFSS   STATUS,2
                      01605 ;; >>> /home/sdcc-builder/build/sdcc-build/orig/sdcc/src/pic14/gen.c:6809:genIfx
                      01606 ;; ***  popGetLabel  key=62, label offset 24
0154   2???           01607         GOTO    _00186_DS_
                      01608 ;;; /home/sdcc-builder/build/sdcc-build/orig/sdcc/src/pic14/gen.c:2316:resultRemat *{*
                      01609 ;;; /home/sdcc-builder/build/sdcc-build/orig/sdcc/src/pic14/gen.c:2760:genLabel *{*
                      01610 ;; ***  genLabel  2763
                      01611 ;;; /home/sdcc-builder/build/sdcc-build/orig/sdcc/src/pic14/gen.c:2316:resultRemat *{*
gpasm-1.4.0 #1106 (Oct  6 2014) obj\Debug\Key   7-1-2020  22:33:06          PAGE 32


LOC    OBJECT CODE    LINE  SOURCE TEXT
  VALUE

                      01612 ;;; /home/sdcc-builder/build/sdcc-build/orig/sdcc/src/pic14/gen.c:3919:genAnd *{*
                      01613 ;; ***  genAnd  3920
                      01614 ;; ***  aopForSym 315
                      01615 ;;      327 sym->rname = _TRISD, size = 1
                      01616 ;;      694 register type nRegs=1
                      01617 ;;      line = 3955 result AOP_REG=r0x104D, size=1, left AOP_DIR=_TRISD, size=1, right AOP_LIT=0x02, siz
                            e=1
                      01618 ;; >>> /home/sdcc-builder/build/sdcc-build/orig/sdcc/src/pic14/gen.c:4190:genAnd
0155                  01619 _00177_DS_
                      01620         .line   148; "Keypad.c" while(GPIO_ReadPortPin(KEYPAD_ROW3_CR,Keypad_Row3)==0);
0155   3002           01621         MOVLW   0x02
                      01622 ;; >>> /home/sdcc-builder/build/sdcc-build/orig/sdcc/src/pic14/gen.c:4191:genAnd
                      01623 ;;      1009
                      01624 ;;      1028  _TRISD   offset=0
0156   ???? ????      01625         BANKSEL _TRISD
0158   05??           01626         ANDWF   _TRISD,W
                      01627 ;; >>> /home/sdcc-builder/build/sdcc-build/orig/sdcc/src/pic14/gen.c:4192:genAnd
                      01628 ;;      1109 rIdx = r0x104D 
0159   ???? ????      01629         BANKSEL r0x1004
015B   00??           01630         MOVWF   r0x1004
                      01631 ;;; /home/sdcc-builder/build/sdcc-build/orig/sdcc/src/pic14/gen.c:2316:resultRemat *{*
                      01632 ;;; /home/sdcc-builder/build/sdcc-build/orig/sdcc/src/pic14/gen.c:5418:genGenericShift *{*
                      01633 ;; ***  genGenericShift  5421
                      01634 ;;      694 register type nRegs=1
                      01635 ;;      694 register type nRegs=1
                      01636 ;;shiftRight_Left2ResultLit:5273: shCount=1, size=1, sign=0, same=0, offr=0
                      01637 ;; >>> /home/sdcc-builder/build/sdcc-build/orig/sdcc/src/pic14/gen.c:5283:shiftRight_Left2ResultLit
015C   1003           01638         BCF     STATUS,0
                      01639 ;; >>> /home/sdcc-builder/build/sdcc-build/orig/sdcc/src/pic14/gen.c:5297:shiftRight_Left2ResultLit
                      01640 ;;      1109 rIdx = r0x104D 
015D   0C??           01641         RRF     r0x1004,W
                      01642 ;; >>> /home/sdcc-builder/build/sdcc-build/orig/sdcc/src/pic14/gen.c:5298:shiftRight_Left2ResultLit
                      01643 ;;      1109 rIdx = r0x104E 
015E   00??           01644         MOVWF   r0x1005
                      01645 ;; ***  addSign  861
                      01646 ;;; /home/sdcc-builder/build/sdcc-build/orig/sdcc/src/pic14/genarith.c:862:addSign *{*
                      01647 ;;; /home/sdcc-builder/build/sdcc-build/orig/sdcc/src/pic14/gen.c:2316:resultRemat *{*
                      01648 ;;; /home/sdcc-builder/build/sdcc-build/orig/sdcc/src/pic14/gen.c:6759:genIfx *{*
                      01649 ;; ***  genIfx  6760
                      01650 ;; ***  pic14_toBoolean  1515
                      01651 ;; >>> /home/sdcc-builder/build/sdcc-build/orig/sdcc/src/pic14/gen.c:1522:pic14_toBoolean
015F   08??           01652         MOVF    r0x1005,W
0160   1903           01653         BTFSC   STATUS,2
                      01654 ;; >>> /home/sdcc-builder/build/sdcc-build/orig/sdcc/src/pic14/gen.c:6814:genIfx
                      01655 ;; ***  popGetLabel  key=53, label offset 24
0161   2???           01656         GOTO    _00177_DS_
                      01657 ;;; /home/sdcc-builder/build/sdcc-build/orig/sdcc/src/pic14/gen.c:2316:resultRemat *{*
                      01658 ;;; /home/sdcc-builder/build/sdcc-build/orig/sdcc/src/pic14/gen.c:2683:genRet *{*
                      01659 ;; ***  genRet  2685
                      01660 ;;; /home/sdcc-builder/build/sdcc-build/orig/sdcc/src/pic14/gen.c:1343:mov2w_op *{*
                      01661 ;; >>> /home/sdcc-builder/build/sdcc-build/orig/sdcc/src/pic14/gen.c:1361:mov2w_op
                      01662         .line   149; "Keypad.c" return (tByte)KEY9;
0162   3039           01663         MOVLW   0x39
gpasm-1.4.0 #1106 (Oct  6 2014) obj\Debug\Key   7-1-2020  22:33:06          PAGE 33


LOC    OBJECT CODE    LINE  SOURCE TEXT
  VALUE

                      01664 ;; >>> /home/sdcc-builder/build/sdcc-build/orig/sdcc/src/pic14/gen.c:2709:genRet
                      01665 ;; ***  popGetLabel  key=73, label offset 24
0163   2???           01666         GOTO    _00197_DS_
                      01667 ;;; /home/sdcc-builder/build/sdcc-build/orig/sdcc/src/pic14/gen.c:2316:resultRemat *{*
                      01668 ;;; /home/sdcc-builder/build/sdcc-build/orig/sdcc/src/pic14/gen.c:2760:genLabel *{*
                      01669 ;; ***  genLabel  2763
                      01670 ;;; /home/sdcc-builder/build/sdcc-build/orig/sdcc/src/pic14/gen.c:2316:resultRemat *{*
                      01671 ;;; /home/sdcc-builder/build/sdcc-build/orig/sdcc/src/pic14/gen.c:3919:genAnd *{*
                      01672 ;; ***  genAnd  3920
                      01673 ;; ***  aopForSym 315
                      01674 ;;      327 sym->rname = _TRISD, size = 1
                      01675 ;;      694 register type nRegs=1
                      01676 ;;      line = 3955 result AOP_REG=r0x104D, size=1, left AOP_DIR=_TRISD, size=1, right AOP_LIT=0x01, siz
                            e=1
                      01677 ;; >>> /home/sdcc-builder/build/sdcc-build/orig/sdcc/src/pic14/gen.c:4190:genAnd
0164                  01678 _00186_DS_
                      01679         .line   152; "Keypad.c" else if(GPIO_ReadPortPin(KEYPAD_ROW4_CR,Keypad_Row4)==0)
0164   3001           01680         MOVLW   0x01
                      01681 ;; >>> /home/sdcc-builder/build/sdcc-build/orig/sdcc/src/pic14/gen.c:4191:genAnd
                      01682 ;;      1009
                      01683 ;;      1028  _TRISD   offset=0
0165   ???? ????      01684         BANKSEL _TRISD
0167   05??           01685         ANDWF   _TRISD,W
                      01686 ;; >>> /home/sdcc-builder/build/sdcc-build/orig/sdcc/src/pic14/gen.c:4192:genAnd
                      01687 ;;      1109 rIdx = r0x104D 
0168   ???? ????      01688         BANKSEL r0x1004
016A   00??           01689         MOVWF   r0x1004
016B   00??           01690         MOVWF   r0x1005
                      01691 ;; ***  addSign  861
                      01692 ;;; /home/sdcc-builder/build/sdcc-build/orig/sdcc/src/pic14/genarith.c:862:addSign *{*
                      01693 ;;; /home/sdcc-builder/build/sdcc-build/orig/sdcc/src/pic14/gen.c:2316:resultRemat *{*
                      01694 ;;; /home/sdcc-builder/build/sdcc-build/orig/sdcc/src/pic14/gen.c:6759:genIfx *{*
                      01695 ;; ***  genIfx  6760
                      01696 ;; ***  pic14_toBoolean  1515
                      01697 ;; >>> /home/sdcc-builder/build/sdcc-build/orig/sdcc/src/pic14/gen.c:1522:pic14_toBoolean
016C   08??           01698         MOVF    r0x1005,W
016D   1D03           01699         BTFSS   STATUS,2
                      01700 ;; >>> /home/sdcc-builder/build/sdcc-build/orig/sdcc/src/pic14/gen.c:6809:genIfx
                      01701 ;; ***  popGetLabel  key=71, label offset 24
016E   2???           01702         GOTO    _00195_DS_
                      01703 ;;; /home/sdcc-builder/build/sdcc-build/orig/sdcc/src/pic14/gen.c:2316:resultRemat *{*
                      01704 ;;; /home/sdcc-builder/build/sdcc-build/orig/sdcc/src/pic14/gen.c:2760:genLabel *{*
                      01705 ;; ***  genLabel  2763
                      01706 ;;; /home/sdcc-builder/build/sdcc-build/orig/sdcc/src/pic14/gen.c:2316:resultRemat *{*
                      01707 ;;; /home/sdcc-builder/build/sdcc-build/orig/sdcc/src/pic14/gen.c:3919:genAnd *{*
                      01708 ;; ***  genAnd  3920
                      01709 ;; ***  aopForSym 315
                      01710 ;;      327 sym->rname = _TRISD, size = 1
                      01711 ;;      694 register type nRegs=1
                      01712 ;;      line = 3955 result AOP_REG=r0x104D, size=1, left AOP_DIR=_TRISD, size=1, right AOP_LIT=0x01, siz
                            e=1
                      01713 ;; >>> /home/sdcc-builder/build/sdcc-build/orig/sdcc/src/pic14/gen.c:4190:genAnd
016F                  01714 _00180_DS_
gpasm-1.4.0 #1106 (Oct  6 2014) obj\Debug\Key   7-1-2020  22:33:06          PAGE 34


LOC    OBJECT CODE    LINE  SOURCE TEXT
  VALUE

                      01715         .line   154; "Keypad.c" while(GPIO_ReadPortPin(KEYPAD_ROW4_CR,Keypad_Row4)==0);
016F   3001           01716         MOVLW   0x01
                      01717 ;; >>> /home/sdcc-builder/build/sdcc-build/orig/sdcc/src/pic14/gen.c:4191:genAnd
                      01718 ;;      1009
                      01719 ;;      1028  _TRISD   offset=0
0170   ???? ????      01720         BANKSEL _TRISD
0172   05??           01721         ANDWF   _TRISD,W
                      01722 ;; >>> /home/sdcc-builder/build/sdcc-build/orig/sdcc/src/pic14/gen.c:4192:genAnd
                      01723 ;;      1109 rIdx = r0x104D 
0173   ???? ????      01724         BANKSEL r0x1004
0175   00??           01725         MOVWF   r0x1004
0176   00??           01726         MOVWF   r0x1005
                      01727 ;; ***  addSign  861
                      01728 ;;; /home/sdcc-builder/build/sdcc-build/orig/sdcc/src/pic14/genarith.c:862:addSign *{*
                      01729 ;;; /home/sdcc-builder/build/sdcc-build/orig/sdcc/src/pic14/gen.c:2316:resultRemat *{*
                      01730 ;;; /home/sdcc-builder/build/sdcc-build/orig/sdcc/src/pic14/gen.c:6759:genIfx *{*
                      01731 ;; ***  genIfx  6760
                      01732 ;; ***  pic14_toBoolean  1515
                      01733 ;; >>> /home/sdcc-builder/build/sdcc-build/orig/sdcc/src/pic14/gen.c:1522:pic14_toBoolean
0177   08??           01734         MOVF    r0x1005,W
0178   1903           01735         BTFSC   STATUS,2
                      01736 ;; >>> /home/sdcc-builder/build/sdcc-build/orig/sdcc/src/pic14/gen.c:6814:genIfx
                      01737 ;; ***  popGetLabel  key=56, label offset 24
0179   2???           01738         GOTO    _00180_DS_
                      01739 ;;; /home/sdcc-builder/build/sdcc-build/orig/sdcc/src/pic14/gen.c:2316:resultRemat *{*
                      01740 ;;; /home/sdcc-builder/build/sdcc-build/orig/sdcc/src/pic14/gen.c:2683:genRet *{*
                      01741 ;; ***  genRet  2685
                      01742 ;;; /home/sdcc-builder/build/sdcc-build/orig/sdcc/src/pic14/gen.c:1343:mov2w_op *{*
                      01743 ;; >>> /home/sdcc-builder/build/sdcc-build/orig/sdcc/src/pic14/gen.c:1361:mov2w_op
                      01744         .line   155; "Keypad.c" return ENTER_KEY;
017A   3023           01745         MOVLW   0x23
                      01746 ;;; /home/sdcc-builder/build/sdcc-build/orig/sdcc/src/pic14/gen.c:2316:resultRemat *{*
                      01747 ;;; /home/sdcc-builder/build/sdcc-build/orig/sdcc/src/pic14/gen.c:2760:genLabel *{*
                      01748 ;; ***  genLabel  2763
                      01749 ;;; /home/sdcc-builder/build/sdcc-build/orig/sdcc/src/pic14/gen.c:2316:resultRemat *{*
                      01750 ;;; /home/sdcc-builder/build/sdcc-build/orig/sdcc/src/pic14/gen.c:2528:genEndFunction *{*
                      01751 ;; ***  genEndFunction  2530
017B                  01752 _00197_DS_
                      01753         .line   159; "Keypad.c" return 0;
017B   0008           01754         RETURN  
                      01755 ; exit point of _Keypad_Scan
                      01756 ;;; /home/sdcc-builder/build/sdcc-build/orig/sdcc/src/pic14/gen.c:7426:genpic14Code *{*
                      01757 
                      01758 ;***
                      01759 ;  pBlock Stats: dbName = C
                      01760 ;***
                      01761 ;entry:  _ResetCols     ;Function start
                      01762 ; 2 exit points
                      01763 ;has an exit
                      01764 ;1 compiler assigned register :
                      01765 ;   r0x1003
                      01766 ;; Starting pCode block
                      01767 ;;; /home/sdcc-builder/build/sdcc-build/orig/sdcc/src/pic14/gen.c:2316:resultRemat *{*
gpasm-1.4.0 #1106 (Oct  6 2014) obj\Debug\Key   7-1-2020  22:33:06          PAGE 35


LOC    OBJECT CODE    LINE  SOURCE TEXT
  VALUE

                      01768 ;;; /home/sdcc-builder/build/sdcc-build/orig/sdcc/src/pic14/gen.c:2760:genLabel *{*
                      01769 ;; ***  genLabel  2763
                      01770 ;;; /home/sdcc-builder/build/sdcc-build/orig/sdcc/src/pic14/gen.c:2316:resultRemat *{*
                      01771 ;;; /home/sdcc-builder/build/sdcc-build/orig/sdcc/src/pic14/gen.c:2340:genFunction *{*
                      01772 ;; ***  genFunction  2342 curr label offset=16previous max_key=0 
017C                  01773 _ResetCols      ;Function start
                      01774 ; 2 exit points
                      01775 ;;; /home/sdcc-builder/build/sdcc-build/orig/sdcc/src/pic14/gen.c:2316:resultRemat *{*
                      01776 ;;; /home/sdcc-builder/build/sdcc-build/orig/sdcc/src/pic14/gen.c:7120:genCast *{*
                      01777 ;; ***  genCast  7121
                      01778 ;; ***  aopForSym 315
                      01779 ;;      327 sym->rname = _PORTB, size = 1
                      01780 ;;      694 register type nRegs=1
                      01781 ;;      line = 7129 result AOP_REG=r0x104C, size=1, left -=-, size=0, right AOP_DIR=_PORTB, size=1
                      01782 ;; ***  genCast  7253
                      01783 ;; >>> /home/sdcc-builder/build/sdcc-build/orig/sdcc/src/pic14/gen.c:7277:genCast
                      01784 ;;      1009
                      01785 ;;      1028  _PORTB   offset=0
                      01786         .line   76; "Keypad.c"  GPIO_WritePortPin(KEYPAD_COLUMN1_DR,Keypad_Column1,GPIO_HIGH);
017C   ???? ????      01787         BANKSEL _PORTB
017E   08??           01788         MOVF    _PORTB,W
                      01789 ;; >>> /home/sdcc-builder/build/sdcc-build/orig/sdcc/src/pic14/gen.c:7278:genCast
                      01790 ;;      1109 rIdx = r0x104C 
017F   ???? ????      01791         BANKSEL r0x1003
0181   00??           01792         MOVWF   r0x1003
                      01793 ;;; /home/sdcc-builder/build/sdcc-build/orig/sdcc/src/pic14/gen.c:2316:resultRemat *{*
                      01794 ;;; /home/sdcc-builder/build/sdcc-build/orig/sdcc/src/pic14/gen.c:3919:genAnd *{*
                      01795 ;; ***  genAnd  3920
                      01796 ;;      694 register type nRegs=1
                      01797 ;;      694 register type nRegs=1
                      01798 ;;      line = 3955 result AOP_REG=r0x104C, size=1, left AOP_REG=r0x104C, size=1, right AOP_LIT=0xfe, si
                            ze=1
                      01799 ;; >>> /home/sdcc-builder/build/sdcc-build/orig/sdcc/src/pic14/gen.c:4122:genAnd
0182   10??           01800         BCF     r0x1003,0
                      01801 ;;; /home/sdcc-builder/build/sdcc-build/orig/sdcc/src/pic14/gen.c:2316:resultRemat *{*
                      01802 ;;; /home/sdcc-builder/build/sdcc-build/orig/sdcc/src/pic14/gen.c:4220:genOr *{*
                      01803 ;; ***  genOr  4221
                      01804 ;;      694 register type nRegs=1
                      01805 ;; ***  aopForSym 315
                      01806 ;;      327 sym->rname = _PORTB, size = 1
                      01807 ;;      line = 4227 result AOP_DIR=_PORTB, size=1, left AOP_REG=r0x104C, size=1, right AOP_LIT=0x01, siz
                            e=1
                      01808 ;;      line = 4253 result AOP_DIR=_PORTB, size=1, left AOP_REG=r0x104C, size=1, right AOP_LIT=0x01, siz
                            e=1
                      01809 ;; >>> /home/sdcc-builder/build/sdcc-build/orig/sdcc/src/pic14/gen.c:4470:genOr
0183   3001           01810         MOVLW   0x01
                      01811 ;; >>> /home/sdcc-builder/build/sdcc-build/orig/sdcc/src/pic14/gen.c:4471:genOr
                      01812 ;;      1109 rIdx = r0x104C 
0184   04??           01813         IORWF   r0x1003,W
                      01814 ;; >>> /home/sdcc-builder/build/sdcc-build/orig/sdcc/src/pic14/gen.c:4472:genOr
                      01815 ;;      1009
                      01816 ;;      1028  _PORTB   offset=0
0185   ???? ????      01817         BANKSEL _PORTB
gpasm-1.4.0 #1106 (Oct  6 2014) obj\Debug\Key   7-1-2020  22:33:06          PAGE 36


LOC    OBJECT CODE    LINE  SOURCE TEXT
  VALUE

0187   00??           01818         MOVWF   _PORTB
                      01819 ;;; /home/sdcc-builder/build/sdcc-build/orig/sdcc/src/pic14/gen.c:2316:resultRemat *{*
                      01820 ;;; /home/sdcc-builder/build/sdcc-build/orig/sdcc/src/pic14/gen.c:7120:genCast *{*
                      01821 ;; ***  genCast  7121
                      01822 ;; ***  aopForSym 315
                      01823 ;;      327 sym->rname = _PORTB, size = 1
                      01824 ;;      694 register type nRegs=1
                      01825 ;;      line = 7129 result AOP_REG=r0x104C, size=1, left -=-, size=0, right AOP_DIR=_PORTB, size=1
                      01826 ;; ***  genCast  7253
                      01827 ;; >>> /home/sdcc-builder/build/sdcc-build/orig/sdcc/src/pic14/gen.c:7277:genCast
                      01828 ;;      1009
                      01829 ;;      1028  _PORTB   offset=0
                      01830         .line   77; "Keypad.c"  GPIO_WritePortPin(KEYPAD_COLUMN2_DR,Keypad_Column2,GPIO_HIGH);
0188   08??           01831         MOVF    _PORTB,W
                      01832 ;; >>> /home/sdcc-builder/build/sdcc-build/orig/sdcc/src/pic14/gen.c:7278:genCast
                      01833 ;;      1109 rIdx = r0x104C 
0189   ???? ????      01834         BANKSEL r0x1003
018B   00??           01835         MOVWF   r0x1003
                      01836 ;;; /home/sdcc-builder/build/sdcc-build/orig/sdcc/src/pic14/gen.c:2316:resultRemat *{*
                      01837 ;;; /home/sdcc-builder/build/sdcc-build/orig/sdcc/src/pic14/gen.c:3919:genAnd *{*
                      01838 ;; ***  genAnd  3920
                      01839 ;;      694 register type nRegs=1
                      01840 ;;      694 register type nRegs=1
                      01841 ;;      line = 3955 result AOP_REG=r0x104C, size=1, left AOP_REG=r0x104C, size=1, right AOP_LIT=0xfd, si
                            ze=1
                      01842 ;; >>> /home/sdcc-builder/build/sdcc-build/orig/sdcc/src/pic14/gen.c:4122:genAnd
018C   10??           01843         BCF     r0x1003,1
                      01844 ;;; /home/sdcc-builder/build/sdcc-build/orig/sdcc/src/pic14/gen.c:2316:resultRemat *{*
                      01845 ;;; /home/sdcc-builder/build/sdcc-build/orig/sdcc/src/pic14/gen.c:4220:genOr *{*
                      01846 ;; ***  genOr  4221
                      01847 ;;      694 register type nRegs=1
                      01848 ;; ***  aopForSym 315
                      01849 ;;      327 sym->rname = _PORTB, size = 1
                      01850 ;;      line = 4227 result AOP_DIR=_PORTB, size=1, left AOP_REG=r0x104C, size=1, right AOP_LIT=0x02, siz
                            e=1
                      01851 ;;      line = 4253 result AOP_DIR=_PORTB, size=1, left AOP_REG=r0x104C, size=1, right AOP_LIT=0x02, siz
                            e=1
                      01852 ;; >>> /home/sdcc-builder/build/sdcc-build/orig/sdcc/src/pic14/gen.c:4470:genOr
018D   3002           01853         MOVLW   0x02
                      01854 ;; >>> /home/sdcc-builder/build/sdcc-build/orig/sdcc/src/pic14/gen.c:4471:genOr
                      01855 ;;      1109 rIdx = r0x104C 
018E   04??           01856         IORWF   r0x1003,W
                      01857 ;; >>> /home/sdcc-builder/build/sdcc-build/orig/sdcc/src/pic14/gen.c:4472:genOr
                      01858 ;;      1009
                      01859 ;;      1028  _PORTB   offset=0
018F   ???? ????      01860         BANKSEL _PORTB
0191   00??           01861         MOVWF   _PORTB
                      01862 ;;; /home/sdcc-builder/build/sdcc-build/orig/sdcc/src/pic14/gen.c:2316:resultRemat *{*
                      01863 ;;; /home/sdcc-builder/build/sdcc-build/orig/sdcc/src/pic14/gen.c:7120:genCast *{*
                      01864 ;; ***  genCast  7121
                      01865 ;; ***  aopForSym 315
                      01866 ;;      327 sym->rname = _PORTB, size = 1
                      01867 ;;      694 register type nRegs=1
gpasm-1.4.0 #1106 (Oct  6 2014) obj\Debug\Key   7-1-2020  22:33:06          PAGE 37


LOC    OBJECT CODE    LINE  SOURCE TEXT
  VALUE

                      01868 ;;      line = 7129 result AOP_REG=r0x104C, size=1, left -=-, size=0, right AOP_DIR=_PORTB, size=1
                      01869 ;; ***  genCast  7253
                      01870 ;; >>> /home/sdcc-builder/build/sdcc-build/orig/sdcc/src/pic14/gen.c:7277:genCast
                      01871 ;;      1009
                      01872 ;;      1028  _PORTB   offset=0
                      01873         .line   78; "Keypad.c"  GPIO_WritePortPin(KEYPAD_COLUMN3_DR,Keypad_Column3,GPIO_HIGH);
0192   08??           01874         MOVF    _PORTB,W
                      01875 ;; >>> /home/sdcc-builder/build/sdcc-build/orig/sdcc/src/pic14/gen.c:7278:genCast
                      01876 ;;      1109 rIdx = r0x104C 
0193   ???? ????      01877         BANKSEL r0x1003
0195   00??           01878         MOVWF   r0x1003
                      01879 ;;; /home/sdcc-builder/build/sdcc-build/orig/sdcc/src/pic14/gen.c:2316:resultRemat *{*
                      01880 ;;; /home/sdcc-builder/build/sdcc-build/orig/sdcc/src/pic14/gen.c:3919:genAnd *{*
                      01881 ;; ***  genAnd  3920
                      01882 ;;      694 register type nRegs=1
                      01883 ;;      694 register type nRegs=1
                      01884 ;;      line = 3955 result AOP_REG=r0x104C, size=1, left AOP_REG=r0x104C, size=1, right AOP_LIT=0xfb, si
                            ze=1
                      01885 ;; >>> /home/sdcc-builder/build/sdcc-build/orig/sdcc/src/pic14/gen.c:4122:genAnd
0196   11??           01886         BCF     r0x1003,2
                      01887 ;;; /home/sdcc-builder/build/sdcc-build/orig/sdcc/src/pic14/gen.c:2316:resultRemat *{*
                      01888 ;;; /home/sdcc-builder/build/sdcc-build/orig/sdcc/src/pic14/gen.c:4220:genOr *{*
                      01889 ;; ***  genOr  4221
                      01890 ;;      694 register type nRegs=1
                      01891 ;; ***  aopForSym 315
                      01892 ;;      327 sym->rname = _PORTB, size = 1
                      01893 ;;      line = 4227 result AOP_DIR=_PORTB, size=1, left AOP_REG=r0x104C, size=1, right AOP_LIT=0x04, siz
                            e=1
                      01894 ;;      line = 4253 result AOP_DIR=_PORTB, size=1, left AOP_REG=r0x104C, size=1, right AOP_LIT=0x04, siz
                            e=1
                      01895 ;; >>> /home/sdcc-builder/build/sdcc-build/orig/sdcc/src/pic14/gen.c:4470:genOr
0197   3004           01896         MOVLW   0x04
                      01897 ;; >>> /home/sdcc-builder/build/sdcc-build/orig/sdcc/src/pic14/gen.c:4471:genOr
                      01898 ;;      1109 rIdx = r0x104C 
0198   04??           01899         IORWF   r0x1003,W
                      01900 ;; >>> /home/sdcc-builder/build/sdcc-build/orig/sdcc/src/pic14/gen.c:4472:genOr
                      01901 ;;      1009
                      01902 ;;      1028  _PORTB   offset=0
0199   ???? ????      01903         BANKSEL _PORTB
019B   00??           01904         MOVWF   _PORTB
                      01905 ;;; /home/sdcc-builder/build/sdcc-build/orig/sdcc/src/pic14/gen.c:2316:resultRemat *{*
                      01906 ;;; /home/sdcc-builder/build/sdcc-build/orig/sdcc/src/pic14/gen.c:2760:genLabel *{*
                      01907 ;; ***  genLabel  2763
                      01908 ;;; /home/sdcc-builder/build/sdcc-build/orig/sdcc/src/pic14/gen.c:2316:resultRemat *{*
                      01909 ;;; /home/sdcc-builder/build/sdcc-build/orig/sdcc/src/pic14/gen.c:2528:genEndFunction *{*
                      01910 ;; ***  genEndFunction  2530
019C   0008           01911         RETURN  
                      01912 ; exit point of _ResetCols
                      01913 ;;; /home/sdcc-builder/build/sdcc-build/orig/sdcc/src/pic14/gen.c:7426:genpic14Code *{*
                      01914 
                      01915 ;***
                      01916 ;  pBlock Stats: dbName = C
                      01917 ;***
gpasm-1.4.0 #1106 (Oct  6 2014) obj\Debug\Key   7-1-2020  22:33:06          PAGE 38


LOC    OBJECT CODE    LINE  SOURCE TEXT
  VALUE

                      01918 ;entry:  _SetColThree   ;Function start
                      01919 ; 2 exit points
                      01920 ;has an exit
                      01921 ;1 compiler assigned register :
                      01922 ;   r0x1003
                      01923 ;; Starting pCode block
                      01924 ;;; /home/sdcc-builder/build/sdcc-build/orig/sdcc/src/pic14/gen.c:2316:resultRemat *{*
                      01925 ;;; /home/sdcc-builder/build/sdcc-build/orig/sdcc/src/pic14/gen.c:2760:genLabel *{*
                      01926 ;; ***  genLabel  2763
                      01927 ;;; /home/sdcc-builder/build/sdcc-build/orig/sdcc/src/pic14/gen.c:2316:resultRemat *{*
                      01928 ;;; /home/sdcc-builder/build/sdcc-build/orig/sdcc/src/pic14/gen.c:2340:genFunction *{*
                      01929 ;; ***  genFunction  2342 curr label offset=12previous max_key=0 
019D                  01930 _SetColThree    ;Function start
                      01931 ; 2 exit points
                      01932 ;;; /home/sdcc-builder/build/sdcc-build/orig/sdcc/src/pic14/gen.c:2316:resultRemat *{*
                      01933 ;;; /home/sdcc-builder/build/sdcc-build/orig/sdcc/src/pic14/gen.c:7120:genCast *{*
                      01934 ;; ***  genCast  7121
                      01935 ;; ***  aopForSym 315
                      01936 ;;      327 sym->rname = _PORTB, size = 1
                      01937 ;;      694 register type nRegs=1
                      01938 ;;      line = 7129 result AOP_REG=r0x104B, size=1, left -=-, size=0, right AOP_DIR=_PORTB, size=1
                      01939 ;; ***  genCast  7253
                      01940 ;; >>> /home/sdcc-builder/build/sdcc-build/orig/sdcc/src/pic14/gen.c:7277:genCast
                      01941 ;;      1009
                      01942 ;;      1028  _PORTB   offset=0
                      01943         .line   69; "Keypad.c"  GPIO_WritePortPin(KEYPAD_COLUMN1_DR,Keypad_Column1,GPIO_HIGH);
019D   ???? ????      01944         BANKSEL _PORTB
019F   08??           01945         MOVF    _PORTB,W
                      01946 ;; >>> /home/sdcc-builder/build/sdcc-build/orig/sdcc/src/pic14/gen.c:7278:genCast
                      01947 ;;      1109 rIdx = r0x104B 
01A0   ???? ????      01948         BANKSEL r0x1003
01A2   00??           01949         MOVWF   r0x1003
                      01950 ;;; /home/sdcc-builder/build/sdcc-build/orig/sdcc/src/pic14/gen.c:2316:resultRemat *{*
                      01951 ;;; /home/sdcc-builder/build/sdcc-build/orig/sdcc/src/pic14/gen.c:3919:genAnd *{*
                      01952 ;; ***  genAnd  3920
                      01953 ;;      694 register type nRegs=1
                      01954 ;;      694 register type nRegs=1
                      01955 ;;      line = 3955 result AOP_REG=r0x104B, size=1, left AOP_REG=r0x104B, size=1, right AOP_LIT=0xfe, si
                            ze=1
                      01956 ;; >>> /home/sdcc-builder/build/sdcc-build/orig/sdcc/src/pic14/gen.c:4122:genAnd
01A3   10??           01957         BCF     r0x1003,0
                      01958 ;;; /home/sdcc-builder/build/sdcc-build/orig/sdcc/src/pic14/gen.c:2316:resultRemat *{*
                      01959 ;;; /home/sdcc-builder/build/sdcc-build/orig/sdcc/src/pic14/gen.c:4220:genOr *{*
                      01960 ;; ***  genOr  4221
                      01961 ;;      694 register type nRegs=1
                      01962 ;; ***  aopForSym 315
                      01963 ;;      327 sym->rname = _PORTB, size = 1
                      01964 ;;      line = 4227 result AOP_DIR=_PORTB, size=1, left AOP_REG=r0x104B, size=1, right AOP_LIT=0x01, siz
                            e=1
                      01965 ;;      line = 4253 result AOP_DIR=_PORTB, size=1, left AOP_REG=r0x104B, size=1, right AOP_LIT=0x01, siz
                            e=1
                      01966 ;; >>> /home/sdcc-builder/build/sdcc-build/orig/sdcc/src/pic14/gen.c:4470:genOr
01A4   3001           01967         MOVLW   0x01
gpasm-1.4.0 #1106 (Oct  6 2014) obj\Debug\Key   7-1-2020  22:33:06          PAGE 39


LOC    OBJECT CODE    LINE  SOURCE TEXT
  VALUE

                      01968 ;; >>> /home/sdcc-builder/build/sdcc-build/orig/sdcc/src/pic14/gen.c:4471:genOr
                      01969 ;;      1109 rIdx = r0x104B 
01A5   04??           01970         IORWF   r0x1003,W
                      01971 ;; >>> /home/sdcc-builder/build/sdcc-build/orig/sdcc/src/pic14/gen.c:4472:genOr
                      01972 ;;      1009
                      01973 ;;      1028  _PORTB   offset=0
01A6   ???? ????      01974         BANKSEL _PORTB
01A8   00??           01975         MOVWF   _PORTB
                      01976 ;;; /home/sdcc-builder/build/sdcc-build/orig/sdcc/src/pic14/gen.c:2316:resultRemat *{*
                      01977 ;;; /home/sdcc-builder/build/sdcc-build/orig/sdcc/src/pic14/gen.c:7120:genCast *{*
                      01978 ;; ***  genCast  7121
                      01979 ;; ***  aopForSym 315
                      01980 ;;      327 sym->rname = _PORTB, size = 1
                      01981 ;;      694 register type nRegs=1
                      01982 ;;      line = 7129 result AOP_REG=r0x104B, size=1, left -=-, size=0, right AOP_DIR=_PORTB, size=1
                      01983 ;; ***  genCast  7253
                      01984 ;; >>> /home/sdcc-builder/build/sdcc-build/orig/sdcc/src/pic14/gen.c:7277:genCast
                      01985 ;;      1009
                      01986 ;;      1028  _PORTB   offset=0
                      01987         .line   70; "Keypad.c"  GPIO_WritePortPin(KEYPAD_COLUMN2_DR,Keypad_Column2,GPIO_HIGH);
01A9   08??           01988         MOVF    _PORTB,W
                      01989 ;; >>> /home/sdcc-builder/build/sdcc-build/orig/sdcc/src/pic14/gen.c:7278:genCast
                      01990 ;;      1109 rIdx = r0x104B 
01AA   ???? ????      01991         BANKSEL r0x1003
01AC   00??           01992         MOVWF   r0x1003
                      01993 ;;; /home/sdcc-builder/build/sdcc-build/orig/sdcc/src/pic14/gen.c:2316:resultRemat *{*
                      01994 ;;; /home/sdcc-builder/build/sdcc-build/orig/sdcc/src/pic14/gen.c:3919:genAnd *{*
                      01995 ;; ***  genAnd  3920
                      01996 ;;      694 register type nRegs=1
                      01997 ;;      694 register type nRegs=1
                      01998 ;;      line = 3955 result AOP_REG=r0x104B, size=1, left AOP_REG=r0x104B, size=1, right AOP_LIT=0xfd, si
                            ze=1
                      01999 ;; >>> /home/sdcc-builder/build/sdcc-build/orig/sdcc/src/pic14/gen.c:4122:genAnd
01AD   10??           02000         BCF     r0x1003,1
                      02001 ;;; /home/sdcc-builder/build/sdcc-build/orig/sdcc/src/pic14/gen.c:2316:resultRemat *{*
                      02002 ;;; /home/sdcc-builder/build/sdcc-build/orig/sdcc/src/pic14/gen.c:4220:genOr *{*
                      02003 ;; ***  genOr  4221
                      02004 ;;      694 register type nRegs=1
                      02005 ;; ***  aopForSym 315
                      02006 ;;      327 sym->rname = _PORTB, size = 1
                      02007 ;;      line = 4227 result AOP_DIR=_PORTB, size=1, left AOP_REG=r0x104B, size=1, right AOP_LIT=0x02, siz
                            e=1
                      02008 ;;      line = 4253 result AOP_DIR=_PORTB, size=1, left AOP_REG=r0x104B, size=1, right AOP_LIT=0x02, siz
                            e=1
                      02009 ;; >>> /home/sdcc-builder/build/sdcc-build/orig/sdcc/src/pic14/gen.c:4470:genOr
01AE   3002           02010         MOVLW   0x02
                      02011 ;; >>> /home/sdcc-builder/build/sdcc-build/orig/sdcc/src/pic14/gen.c:4471:genOr
                      02012 ;;      1109 rIdx = r0x104B 
01AF   04??           02013         IORWF   r0x1003,W
                      02014 ;; >>> /home/sdcc-builder/build/sdcc-build/orig/sdcc/src/pic14/gen.c:4472:genOr
                      02015 ;;      1009
                      02016 ;;      1028  _PORTB   offset=0
01B0   ???? ????      02017         BANKSEL _PORTB
gpasm-1.4.0 #1106 (Oct  6 2014) obj\Debug\Key   7-1-2020  22:33:06          PAGE 40


LOC    OBJECT CODE    LINE  SOURCE TEXT
  VALUE

01B2   00??           02018         MOVWF   _PORTB
                      02019 ;;; /home/sdcc-builder/build/sdcc-build/orig/sdcc/src/pic14/gen.c:2316:resultRemat *{*
                      02020 ;;; /home/sdcc-builder/build/sdcc-build/orig/sdcc/src/pic14/gen.c:7120:genCast *{*
                      02021 ;; ***  genCast  7121
                      02022 ;; ***  aopForSym 315
                      02023 ;;      327 sym->rname = _PORTB, size = 1
                      02024 ;;      694 register type nRegs=1
                      02025 ;;      line = 7129 result AOP_REG=r0x104B, size=1, left -=-, size=0, right AOP_DIR=_PORTB, size=1
                      02026 ;; ***  genCast  7253
                      02027 ;; >>> /home/sdcc-builder/build/sdcc-build/orig/sdcc/src/pic14/gen.c:7277:genCast
                      02028 ;;      1009
                      02029 ;;      1028  _PORTB   offset=0
                      02030         .line   71; "Keypad.c"  GPIO_WritePortPin(KEYPAD_COLUMN3_DR,Keypad_Column3,GPIO_LOW);
01B3   08??           02031         MOVF    _PORTB,W
                      02032 ;; >>> /home/sdcc-builder/build/sdcc-build/orig/sdcc/src/pic14/gen.c:7278:genCast
                      02033 ;;      1109 rIdx = r0x104B 
01B4   ???? ????      02034         BANKSEL r0x1003
01B6   00??           02035         MOVWF   r0x1003
                      02036 ;;; /home/sdcc-builder/build/sdcc-build/orig/sdcc/src/pic14/gen.c:2316:resultRemat *{*
                      02037 ;;; /home/sdcc-builder/build/sdcc-build/orig/sdcc/src/pic14/gen.c:3919:genAnd *{*
                      02038 ;; ***  genAnd  3920
                      02039 ;;      694 register type nRegs=1
                      02040 ;; ***  aopForSym 315
                      02041 ;;      327 sym->rname = _PORTB, size = 1
                      02042 ;;      line = 3955 result AOP_DIR=_PORTB, size=1, left AOP_REG=r0x104B, size=1, right AOP_LIT=0xfb, siz
                            e=1
                      02043 ;; >>> /home/sdcc-builder/build/sdcc-build/orig/sdcc/src/pic14/gen.c:4190:genAnd
01B7   30FB           02044         MOVLW   0xfb
                      02045 ;; >>> /home/sdcc-builder/build/sdcc-build/orig/sdcc/src/pic14/gen.c:4191:genAnd
                      02046 ;;      1109 rIdx = r0x104B 
01B8   05??           02047         ANDWF   r0x1003,W
                      02048 ;; >>> /home/sdcc-builder/build/sdcc-build/orig/sdcc/src/pic14/gen.c:4192:genAnd
                      02049 ;;      1009
                      02050 ;;      1028  _PORTB   offset=0
01B9   ???? ????      02051         BANKSEL _PORTB
01BB   00??           02052         MOVWF   _PORTB
                      02053 ;;; /home/sdcc-builder/build/sdcc-build/orig/sdcc/src/pic14/gen.c:2316:resultRemat *{*
                      02054 ;;; /home/sdcc-builder/build/sdcc-build/orig/sdcc/src/pic14/gen.c:2760:genLabel *{*
                      02055 ;; ***  genLabel  2763
                      02056 ;;; /home/sdcc-builder/build/sdcc-build/orig/sdcc/src/pic14/gen.c:2316:resultRemat *{*
                      02057 ;;; /home/sdcc-builder/build/sdcc-build/orig/sdcc/src/pic14/gen.c:2528:genEndFunction *{*
                      02058 ;; ***  genEndFunction  2530
01BC   0008           02059         RETURN  
                      02060 ; exit point of _SetColThree
                      02061 ;;; /home/sdcc-builder/build/sdcc-build/orig/sdcc/src/pic14/gen.c:7426:genpic14Code *{*
                      02062 
                      02063 ;***
                      02064 ;  pBlock Stats: dbName = C
                      02065 ;***
                      02066 ;entry:  _SetColTwo     ;Function start
                      02067 ; 2 exit points
                      02068 ;has an exit
                      02069 ;1 compiler assigned register :
gpasm-1.4.0 #1106 (Oct  6 2014) obj\Debug\Key   7-1-2020  22:33:06          PAGE 41


LOC    OBJECT CODE    LINE  SOURCE TEXT
  VALUE

                      02070 ;   r0x1003
                      02071 ;; Starting pCode block
                      02072 ;;; /home/sdcc-builder/build/sdcc-build/orig/sdcc/src/pic14/gen.c:2316:resultRemat *{*
                      02073 ;;; /home/sdcc-builder/build/sdcc-build/orig/sdcc/src/pic14/gen.c:2760:genLabel *{*
                      02074 ;; ***  genLabel  2763
                      02075 ;;; /home/sdcc-builder/build/sdcc-build/orig/sdcc/src/pic14/gen.c:2316:resultRemat *{*
                      02076 ;;; /home/sdcc-builder/build/sdcc-build/orig/sdcc/src/pic14/gen.c:2340:genFunction *{*
                      02077 ;; ***  genFunction  2342 curr label offset=8previous max_key=0 
01BD                  02078 _SetColTwo      ;Function start
                      02079 ; 2 exit points
                      02080 ;;; /home/sdcc-builder/build/sdcc-build/orig/sdcc/src/pic14/gen.c:2316:resultRemat *{*
                      02081 ;;; /home/sdcc-builder/build/sdcc-build/orig/sdcc/src/pic14/gen.c:7120:genCast *{*
                      02082 ;; ***  genCast  7121
                      02083 ;; ***  aopForSym 315
                      02084 ;;      327 sym->rname = _PORTB, size = 1
                      02085 ;;      694 register type nRegs=1
                      02086 ;;      line = 7129 result AOP_REG=r0x104A, size=1, left -=-, size=0, right AOP_DIR=_PORTB, size=1
                      02087 ;; ***  genCast  7253
                      02088 ;; >>> /home/sdcc-builder/build/sdcc-build/orig/sdcc/src/pic14/gen.c:7277:genCast
                      02089 ;;      1009
                      02090 ;;      1028  _PORTB   offset=0
                      02091         .line   63; "Keypad.c"  GPIO_WritePortPin(KEYPAD_COLUMN1_DR,Keypad_Column1,GPIO_HIGH);
01BD   ???? ????      02092         BANKSEL _PORTB
01BF   08??           02093         MOVF    _PORTB,W
                      02094 ;; >>> /home/sdcc-builder/build/sdcc-build/orig/sdcc/src/pic14/gen.c:7278:genCast
                      02095 ;;      1109 rIdx = r0x104A 
01C0   ???? ????      02096         BANKSEL r0x1003
01C2   00??           02097         MOVWF   r0x1003
                      02098 ;;; /home/sdcc-builder/build/sdcc-build/orig/sdcc/src/pic14/gen.c:2316:resultRemat *{*
                      02099 ;;; /home/sdcc-builder/build/sdcc-build/orig/sdcc/src/pic14/gen.c:3919:genAnd *{*
                      02100 ;; ***  genAnd  3920
                      02101 ;;      694 register type nRegs=1
                      02102 ;;      694 register type nRegs=1
                      02103 ;;      line = 3955 result AOP_REG=r0x104A, size=1, left AOP_REG=r0x104A, size=1, right AOP_LIT=0xfe, si
                            ze=1
                      02104 ;; >>> /home/sdcc-builder/build/sdcc-build/orig/sdcc/src/pic14/gen.c:4122:genAnd
01C3   10??           02105         BCF     r0x1003,0
                      02106 ;;; /home/sdcc-builder/build/sdcc-build/orig/sdcc/src/pic14/gen.c:2316:resultRemat *{*
                      02107 ;;; /home/sdcc-builder/build/sdcc-build/orig/sdcc/src/pic14/gen.c:4220:genOr *{*
                      02108 ;; ***  genOr  4221
                      02109 ;;      694 register type nRegs=1
                      02110 ;; ***  aopForSym 315
                      02111 ;;      327 sym->rname = _PORTB, size = 1
                      02112 ;;      line = 4227 result AOP_DIR=_PORTB, size=1, left AOP_REG=r0x104A, size=1, right AOP_LIT=0x01, siz
                            e=1
                      02113 ;;      line = 4253 result AOP_DIR=_PORTB, size=1, left AOP_REG=r0x104A, size=1, right AOP_LIT=0x01, siz
                            e=1
                      02114 ;; >>> /home/sdcc-builder/build/sdcc-build/orig/sdcc/src/pic14/gen.c:4470:genOr
01C4   3001           02115         MOVLW   0x01
                      02116 ;; >>> /home/sdcc-builder/build/sdcc-build/orig/sdcc/src/pic14/gen.c:4471:genOr
                      02117 ;;      1109 rIdx = r0x104A 
01C5   04??           02118         IORWF   r0x1003,W
                      02119 ;; >>> /home/sdcc-builder/build/sdcc-build/orig/sdcc/src/pic14/gen.c:4472:genOr
gpasm-1.4.0 #1106 (Oct  6 2014) obj\Debug\Key   7-1-2020  22:33:06          PAGE 42


LOC    OBJECT CODE    LINE  SOURCE TEXT
  VALUE

                      02120 ;;      1009
                      02121 ;;      1028  _PORTB   offset=0
01C6   ???? ????      02122         BANKSEL _PORTB
01C8   00??           02123         MOVWF   _PORTB
                      02124 ;;; /home/sdcc-builder/build/sdcc-build/orig/sdcc/src/pic14/gen.c:2316:resultRemat *{*
                      02125 ;;; /home/sdcc-builder/build/sdcc-build/orig/sdcc/src/pic14/gen.c:7120:genCast *{*
                      02126 ;; ***  genCast  7121
                      02127 ;; ***  aopForSym 315
                      02128 ;;      327 sym->rname = _PORTB, size = 1
                      02129 ;;      694 register type nRegs=1
                      02130 ;;      line = 7129 result AOP_REG=r0x104A, size=1, left -=-, size=0, right AOP_DIR=_PORTB, size=1
                      02131 ;; ***  genCast  7253
                      02132 ;; >>> /home/sdcc-builder/build/sdcc-build/orig/sdcc/src/pic14/gen.c:7277:genCast
                      02133 ;;      1009
                      02134 ;;      1028  _PORTB   offset=0
                      02135         .line   64; "Keypad.c"  GPIO_WritePortPin(KEYPAD_COLUMN2_DR,Keypad_Column2,GPIO_LOW);
01C9   08??           02136         MOVF    _PORTB,W
                      02137 ;; >>> /home/sdcc-builder/build/sdcc-build/orig/sdcc/src/pic14/gen.c:7278:genCast
                      02138 ;;      1109 rIdx = r0x104A 
01CA   ???? ????      02139         BANKSEL r0x1003
01CC   00??           02140         MOVWF   r0x1003
                      02141 ;;; /home/sdcc-builder/build/sdcc-build/orig/sdcc/src/pic14/gen.c:2316:resultRemat *{*
                      02142 ;;; /home/sdcc-builder/build/sdcc-build/orig/sdcc/src/pic14/gen.c:3919:genAnd *{*
                      02143 ;; ***  genAnd  3920
                      02144 ;;      694 register type nRegs=1
                      02145 ;; ***  aopForSym 315
                      02146 ;;      327 sym->rname = _PORTB, size = 1
                      02147 ;;      line = 3955 result AOP_DIR=_PORTB, size=1, left AOP_REG=r0x104A, size=1, right AOP_LIT=0xfd, siz
                            e=1
                      02148 ;; >>> /home/sdcc-builder/build/sdcc-build/orig/sdcc/src/pic14/gen.c:4190:genAnd
01CD   30FD           02149         MOVLW   0xfd
                      02150 ;; >>> /home/sdcc-builder/build/sdcc-build/orig/sdcc/src/pic14/gen.c:4191:genAnd
                      02151 ;;      1109 rIdx = r0x104A 
01CE   05??           02152         ANDWF   r0x1003,W
                      02153 ;; >>> /home/sdcc-builder/build/sdcc-build/orig/sdcc/src/pic14/gen.c:4192:genAnd
                      02154 ;;      1009
                      02155 ;;      1028  _PORTB   offset=0
01CF   ???? ????      02156         BANKSEL _PORTB
01D1   00??           02157         MOVWF   _PORTB
                      02158 ;;; /home/sdcc-builder/build/sdcc-build/orig/sdcc/src/pic14/gen.c:2316:resultRemat *{*
                      02159 ;;; /home/sdcc-builder/build/sdcc-build/orig/sdcc/src/pic14/gen.c:7120:genCast *{*
                      02160 ;; ***  genCast  7121
                      02161 ;; ***  aopForSym 315
                      02162 ;;      327 sym->rname = _PORTB, size = 1
                      02163 ;;      694 register type nRegs=1
                      02164 ;;      line = 7129 result AOP_REG=r0x104A, size=1, left -=-, size=0, right AOP_DIR=_PORTB, size=1
                      02165 ;; ***  genCast  7253
                      02166 ;; >>> /home/sdcc-builder/build/sdcc-build/orig/sdcc/src/pic14/gen.c:7277:genCast
                      02167 ;;      1009
                      02168 ;;      1028  _PORTB   offset=0
                      02169         .line   65; "Keypad.c"  GPIO_WritePortPin(KEYPAD_COLUMN3_DR,Keypad_Column3,GPIO_HIGH);
01D2   08??           02170         MOVF    _PORTB,W
                      02171 ;; >>> /home/sdcc-builder/build/sdcc-build/orig/sdcc/src/pic14/gen.c:7278:genCast
gpasm-1.4.0 #1106 (Oct  6 2014) obj\Debug\Key   7-1-2020  22:33:06          PAGE 43


LOC    OBJECT CODE    LINE  SOURCE TEXT
  VALUE

                      02172 ;;      1109 rIdx = r0x104A 
01D3   ???? ????      02173         BANKSEL r0x1003
01D5   00??           02174         MOVWF   r0x1003
                      02175 ;;; /home/sdcc-builder/build/sdcc-build/orig/sdcc/src/pic14/gen.c:2316:resultRemat *{*
                      02176 ;;; /home/sdcc-builder/build/sdcc-build/orig/sdcc/src/pic14/gen.c:3919:genAnd *{*
                      02177 ;; ***  genAnd  3920
                      02178 ;;      694 register type nRegs=1
                      02179 ;;      694 register type nRegs=1
                      02180 ;;      line = 3955 result AOP_REG=r0x104A, size=1, left AOP_REG=r0x104A, size=1, right AOP_LIT=0xfb, si
                            ze=1
                      02181 ;; >>> /home/sdcc-builder/build/sdcc-build/orig/sdcc/src/pic14/gen.c:4122:genAnd
01D6   11??           02182         BCF     r0x1003,2
                      02183 ;;; /home/sdcc-builder/build/sdcc-build/orig/sdcc/src/pic14/gen.c:2316:resultRemat *{*
                      02184 ;;; /home/sdcc-builder/build/sdcc-build/orig/sdcc/src/pic14/gen.c:4220:genOr *{*
                      02185 ;; ***  genOr  4221
                      02186 ;;      694 register type nRegs=1
                      02187 ;; ***  aopForSym 315
                      02188 ;;      327 sym->rname = _PORTB, size = 1
                      02189 ;;      line = 4227 result AOP_DIR=_PORTB, size=1, left AOP_REG=r0x104A, size=1, right AOP_LIT=0x04, siz
                            e=1
                      02190 ;;      line = 4253 result AOP_DIR=_PORTB, size=1, left AOP_REG=r0x104A, size=1, right AOP_LIT=0x04, siz
                            e=1
                      02191 ;; >>> /home/sdcc-builder/build/sdcc-build/orig/sdcc/src/pic14/gen.c:4470:genOr
01D7   3004           02192         MOVLW   0x04
                      02193 ;; >>> /home/sdcc-builder/build/sdcc-build/orig/sdcc/src/pic14/gen.c:4471:genOr
                      02194 ;;      1109 rIdx = r0x104A 
01D8   04??           02195         IORWF   r0x1003,W
                      02196 ;; >>> /home/sdcc-builder/build/sdcc-build/orig/sdcc/src/pic14/gen.c:4472:genOr
                      02197 ;;      1009
                      02198 ;;      1028  _PORTB   offset=0
01D9   ???? ????      02199         BANKSEL _PORTB
01DB   00??           02200         MOVWF   _PORTB
                      02201 ;;; /home/sdcc-builder/build/sdcc-build/orig/sdcc/src/pic14/gen.c:2316:resultRemat *{*
                      02202 ;;; /home/sdcc-builder/build/sdcc-build/orig/sdcc/src/pic14/gen.c:2760:genLabel *{*
                      02203 ;; ***  genLabel  2763
                      02204 ;;; /home/sdcc-builder/build/sdcc-build/orig/sdcc/src/pic14/gen.c:2316:resultRemat *{*
                      02205 ;;; /home/sdcc-builder/build/sdcc-build/orig/sdcc/src/pic14/gen.c:2528:genEndFunction *{*
                      02206 ;; ***  genEndFunction  2530
01DC   0008           02207         RETURN  
                      02208 ; exit point of _SetColTwo
                      02209 ;;; /home/sdcc-builder/build/sdcc-build/orig/sdcc/src/pic14/gen.c:7426:genpic14Code *{*
                      02210 
                      02211 ;***
                      02212 ;  pBlock Stats: dbName = C
                      02213 ;***
                      02214 ;entry:  _SetColOne     ;Function start
                      02215 ; 2 exit points
                      02216 ;has an exit
                      02217 ;1 compiler assigned register :
                      02218 ;   r0x1003
                      02219 ;; Starting pCode block
                      02220 ;;; /home/sdcc-builder/build/sdcc-build/orig/sdcc/src/pic14/gen.c:2316:resultRemat *{*
                      02221 ;;; /home/sdcc-builder/build/sdcc-build/orig/sdcc/src/pic14/gen.c:2760:genLabel *{*
gpasm-1.4.0 #1106 (Oct  6 2014) obj\Debug\Key   7-1-2020  22:33:06          PAGE 44


LOC    OBJECT CODE    LINE  SOURCE TEXT
  VALUE

                      02222 ;; ***  genLabel  2763
                      02223 ;;; /home/sdcc-builder/build/sdcc-build/orig/sdcc/src/pic14/gen.c:2316:resultRemat *{*
                      02224 ;;; /home/sdcc-builder/build/sdcc-build/orig/sdcc/src/pic14/gen.c:2340:genFunction *{*
                      02225 ;; ***  genFunction  2342 curr label offset=4previous max_key=0 
01DD                  02226 _SetColOne      ;Function start
                      02227 ; 2 exit points
                      02228 ;;; /home/sdcc-builder/build/sdcc-build/orig/sdcc/src/pic14/gen.c:2316:resultRemat *{*
                      02229 ;;; /home/sdcc-builder/build/sdcc-build/orig/sdcc/src/pic14/gen.c:7120:genCast *{*
                      02230 ;; ***  genCast  7121
                      02231 ;; ***  aopForSym 315
                      02232 ;;      327 sym->rname = _PORTB, size = 1
                      02233 ;;      694 register type nRegs=1
                      02234 ;;      line = 7129 result AOP_REG=r0x1049, size=1, left -=-, size=0, right AOP_DIR=_PORTB, size=1
                      02235 ;; ***  genCast  7253
                      02236 ;; >>> /home/sdcc-builder/build/sdcc-build/orig/sdcc/src/pic14/gen.c:7277:genCast
                      02237 ;;      1009
                      02238 ;;      1028  _PORTB   offset=0
                      02239         .line   57; "Keypad.c"  GPIO_WritePortPin(KEYPAD_COLUMN1_DR,Keypad_Column1,GPIO_LOW);
01DD   ???? ????      02240         BANKSEL _PORTB
01DF   08??           02241         MOVF    _PORTB,W
                      02242 ;; >>> /home/sdcc-builder/build/sdcc-build/orig/sdcc/src/pic14/gen.c:7278:genCast
                      02243 ;;      1109 rIdx = r0x1049 
01E0   ???? ????      02244         BANKSEL r0x1003
01E2   00??           02245         MOVWF   r0x1003
                      02246 ;;; /home/sdcc-builder/build/sdcc-build/orig/sdcc/src/pic14/gen.c:2316:resultRemat *{*
                      02247 ;;; /home/sdcc-builder/build/sdcc-build/orig/sdcc/src/pic14/gen.c:3919:genAnd *{*
                      02248 ;; ***  genAnd  3920
                      02249 ;;      694 register type nRegs=1
                      02250 ;; ***  aopForSym 315
                      02251 ;;      327 sym->rname = _PORTB, size = 1
                      02252 ;;      line = 3955 result AOP_DIR=_PORTB, size=1, left AOP_REG=r0x1049, size=1, right AOP_LIT=0xfe, siz
                            e=1
                      02253 ;; >>> /home/sdcc-builder/build/sdcc-build/orig/sdcc/src/pic14/gen.c:4190:genAnd
01E3   30FE           02254         MOVLW   0xfe
                      02255 ;; >>> /home/sdcc-builder/build/sdcc-build/orig/sdcc/src/pic14/gen.c:4191:genAnd
                      02256 ;;      1109 rIdx = r0x1049 
01E4   05??           02257         ANDWF   r0x1003,W
                      02258 ;; >>> /home/sdcc-builder/build/sdcc-build/orig/sdcc/src/pic14/gen.c:4192:genAnd
                      02259 ;;      1009
                      02260 ;;      1028  _PORTB   offset=0
01E5   ???? ????      02261         BANKSEL _PORTB
01E7   00??           02262         MOVWF   _PORTB
                      02263 ;;; /home/sdcc-builder/build/sdcc-build/orig/sdcc/src/pic14/gen.c:2316:resultRemat *{*
                      02264 ;;; /home/sdcc-builder/build/sdcc-build/orig/sdcc/src/pic14/gen.c:7120:genCast *{*
                      02265 ;; ***  genCast  7121
                      02266 ;; ***  aopForSym 315
                      02267 ;;      327 sym->rname = _PORTB, size = 1
                      02268 ;;      694 register type nRegs=1
                      02269 ;;      line = 7129 result AOP_REG=r0x1049, size=1, left -=-, size=0, right AOP_DIR=_PORTB, size=1
                      02270 ;; ***  genCast  7253
                      02271 ;; >>> /home/sdcc-builder/build/sdcc-build/orig/sdcc/src/pic14/gen.c:7277:genCast
                      02272 ;;      1009
                      02273 ;;      1028  _PORTB   offset=0
gpasm-1.4.0 #1106 (Oct  6 2014) obj\Debug\Key   7-1-2020  22:33:06          PAGE 45


LOC    OBJECT CODE    LINE  SOURCE TEXT
  VALUE

                      02274         .line   58; "Keypad.c"  GPIO_WritePortPin(KEYPAD_COLUMN2_DR,Keypad_Column2,GPIO_HIGH);
01E8   08??           02275         MOVF    _PORTB,W
                      02276 ;; >>> /home/sdcc-builder/build/sdcc-build/orig/sdcc/src/pic14/gen.c:7278:genCast
                      02277 ;;      1109 rIdx = r0x1049 
01E9   ???? ????      02278         BANKSEL r0x1003
01EB   00??           02279         MOVWF   r0x1003
                      02280 ;;; /home/sdcc-builder/build/sdcc-build/orig/sdcc/src/pic14/gen.c:2316:resultRemat *{*
                      02281 ;;; /home/sdcc-builder/build/sdcc-build/orig/sdcc/src/pic14/gen.c:3919:genAnd *{*
                      02282 ;; ***  genAnd  3920
                      02283 ;;      694 register type nRegs=1
                      02284 ;;      694 register type nRegs=1
                      02285 ;;      line = 3955 result AOP_REG=r0x1049, size=1, left AOP_REG=r0x1049, size=1, right AOP_LIT=0xfd, si
                            ze=1
                      02286 ;; >>> /home/sdcc-builder/build/sdcc-build/orig/sdcc/src/pic14/gen.c:4122:genAnd
01EC   10??           02287         BCF     r0x1003,1
                      02288 ;;; /home/sdcc-builder/build/sdcc-build/orig/sdcc/src/pic14/gen.c:2316:resultRemat *{*
                      02289 ;;; /home/sdcc-builder/build/sdcc-build/orig/sdcc/src/pic14/gen.c:4220:genOr *{*
                      02290 ;; ***  genOr  4221
                      02291 ;;      694 register type nRegs=1
                      02292 ;; ***  aopForSym 315
                      02293 ;;      327 sym->rname = _PORTB, size = 1
                      02294 ;;      line = 4227 result AOP_DIR=_PORTB, size=1, left AOP_REG=r0x1049, size=1, right AOP_LIT=0x02, siz
                            e=1
                      02295 ;;      line = 4253 result AOP_DIR=_PORTB, size=1, left AOP_REG=r0x1049, size=1, right AOP_LIT=0x02, siz
                            e=1
                      02296 ;; >>> /home/sdcc-builder/build/sdcc-build/orig/sdcc/src/pic14/gen.c:4470:genOr
01ED   3002           02297         MOVLW   0x02
                      02298 ;; >>> /home/sdcc-builder/build/sdcc-build/orig/sdcc/src/pic14/gen.c:4471:genOr
                      02299 ;;      1109 rIdx = r0x1049 
01EE   04??           02300         IORWF   r0x1003,W
                      02301 ;; >>> /home/sdcc-builder/build/sdcc-build/orig/sdcc/src/pic14/gen.c:4472:genOr
                      02302 ;;      1009
                      02303 ;;      1028  _PORTB   offset=0
01EF   ???? ????      02304         BANKSEL _PORTB
01F1   00??           02305         MOVWF   _PORTB
                      02306 ;;; /home/sdcc-builder/build/sdcc-build/orig/sdcc/src/pic14/gen.c:2316:resultRemat *{*
                      02307 ;;; /home/sdcc-builder/build/sdcc-build/orig/sdcc/src/pic14/gen.c:7120:genCast *{*
                      02308 ;; ***  genCast  7121
                      02309 ;; ***  aopForSym 315
                      02310 ;;      327 sym->rname = _PORTB, size = 1
                      02311 ;;      694 register type nRegs=1
                      02312 ;;      line = 7129 result AOP_REG=r0x1049, size=1, left -=-, size=0, right AOP_DIR=_PORTB, size=1
                      02313 ;; ***  genCast  7253
                      02314 ;; >>> /home/sdcc-builder/build/sdcc-build/orig/sdcc/src/pic14/gen.c:7277:genCast
                      02315 ;;      1009
                      02316 ;;      1028  _PORTB   offset=0
                      02317         .line   59; "Keypad.c"  GPIO_WritePortPin(KEYPAD_COLUMN3_DR,Keypad_Column3,GPIO_HIGH);
01F2   08??           02318         MOVF    _PORTB,W
                      02319 ;; >>> /home/sdcc-builder/build/sdcc-build/orig/sdcc/src/pic14/gen.c:7278:genCast
                      02320 ;;      1109 rIdx = r0x1049 
01F3   ???? ????      02321         BANKSEL r0x1003
01F5   00??           02322         MOVWF   r0x1003
                      02323 ;;; /home/sdcc-builder/build/sdcc-build/orig/sdcc/src/pic14/gen.c:2316:resultRemat *{*
gpasm-1.4.0 #1106 (Oct  6 2014) obj\Debug\Key   7-1-2020  22:33:06          PAGE 46


LOC    OBJECT CODE    LINE  SOURCE TEXT
  VALUE

                      02324 ;;; /home/sdcc-builder/build/sdcc-build/orig/sdcc/src/pic14/gen.c:3919:genAnd *{*
                      02325 ;; ***  genAnd  3920
                      02326 ;;      694 register type nRegs=1
                      02327 ;;      694 register type nRegs=1
                      02328 ;;      line = 3955 result AOP_REG=r0x1049, size=1, left AOP_REG=r0x1049, size=1, right AOP_LIT=0xfb, si
                            ze=1
                      02329 ;; >>> /home/sdcc-builder/build/sdcc-build/orig/sdcc/src/pic14/gen.c:4122:genAnd
01F6   11??           02330         BCF     r0x1003,2
                      02331 ;;; /home/sdcc-builder/build/sdcc-build/orig/sdcc/src/pic14/gen.c:2316:resultRemat *{*
                      02332 ;;; /home/sdcc-builder/build/sdcc-build/orig/sdcc/src/pic14/gen.c:4220:genOr *{*
                      02333 ;; ***  genOr  4221
                      02334 ;;      694 register type nRegs=1
                      02335 ;; ***  aopForSym 315
                      02336 ;;      327 sym->rname = _PORTB, size = 1
                      02337 ;;      line = 4227 result AOP_DIR=_PORTB, size=1, left AOP_REG=r0x1049, size=1, right AOP_LIT=0x04, siz
                            e=1
                      02338 ;;      line = 4253 result AOP_DIR=_PORTB, size=1, left AOP_REG=r0x1049, size=1, right AOP_LIT=0x04, siz
                            e=1
                      02339 ;; >>> /home/sdcc-builder/build/sdcc-build/orig/sdcc/src/pic14/gen.c:4470:genOr
01F7   3004           02340         MOVLW   0x04
                      02341 ;; >>> /home/sdcc-builder/build/sdcc-build/orig/sdcc/src/pic14/gen.c:4471:genOr
                      02342 ;;      1109 rIdx = r0x1049 
01F8   04??           02343         IORWF   r0x1003,W
                      02344 ;; >>> /home/sdcc-builder/build/sdcc-build/orig/sdcc/src/pic14/gen.c:4472:genOr
                      02345 ;;      1009
                      02346 ;;      1028  _PORTB   offset=0
01F9   ???? ????      02347         BANKSEL _PORTB
01FB   00??           02348         MOVWF   _PORTB
                      02349 ;;; /home/sdcc-builder/build/sdcc-build/orig/sdcc/src/pic14/gen.c:2316:resultRemat *{*
                      02350 ;;; /home/sdcc-builder/build/sdcc-build/orig/sdcc/src/pic14/gen.c:2760:genLabel *{*
                      02351 ;; ***  genLabel  2763
                      02352 ;;; /home/sdcc-builder/build/sdcc-build/orig/sdcc/src/pic14/gen.c:2316:resultRemat *{*
                      02353 ;;; /home/sdcc-builder/build/sdcc-build/orig/sdcc/src/pic14/gen.c:2528:genEndFunction *{*
                      02354 ;; ***  genEndFunction  2530
01FC   0008           02355         RETURN  
                      02356 ; exit point of _SetColOne
                      02357 ;;; /home/sdcc-builder/build/sdcc-build/orig/sdcc/src/pic14/gen.c:7426:genpic14Code *{*
                      02358 
                      02359 ;***
                      02360 ;  pBlock Stats: dbName = C
                      02361 ;***
                      02362 ;entry:  _Keypad_Init   ;Function start
                      02363 ; 2 exit points
                      02364 ;has an exit
                      02365 ;1 compiler assigned register :
                      02366 ;   r0x1006
                      02367 ;; Starting pCode block
                      02368 ;;; /home/sdcc-builder/build/sdcc-build/orig/sdcc/src/pic14/gen.c:2316:resultRemat *{*
                      02369 ;;; /home/sdcc-builder/build/sdcc-build/orig/sdcc/src/pic14/gen.c:2760:genLabel *{*
                      02370 ;; ***  genLabel  2763
                      02371 ;;; /home/sdcc-builder/build/sdcc-build/orig/sdcc/src/pic14/gen.c:2316:resultRemat *{*
                      02372 ;;; /home/sdcc-builder/build/sdcc-build/orig/sdcc/src/pic14/gen.c:2340:genFunction *{*
                      02373 ;; ***  genFunction  2342 curr label offset=0previous max_key=0 
gpasm-1.4.0 #1106 (Oct  6 2014) obj\Debug\Key   7-1-2020  22:33:06          PAGE 47


LOC    OBJECT CODE    LINE  SOURCE TEXT
  VALUE

01FD                  02374 _Keypad_Init    ;Function start
                      02375 ; 2 exit points
                      02376 ;;; /home/sdcc-builder/build/sdcc-build/orig/sdcc/src/pic14/gen.c:2316:resultRemat *{*
                      02377 ;;; /home/sdcc-builder/build/sdcc-build/orig/sdcc/src/pic14/gen.c:7120:genCast *{*
                      02378 ;; ***  genCast  7121
                      02379 ;; ***  aopForSym 315
                      02380 ;;      327 sym->rname = _PORTD, size = 1
                      02381 ;;      694 register type nRegs=1
                      02382 ;;      line = 7129 result AOP_REG=r0x1048, size=1, left -=-, size=0, right AOP_DIR=_PORTD, size=1
                      02383 ;; ***  genCast  7253
                      02384 ;; >>> /home/sdcc-builder/build/sdcc-build/orig/sdcc/src/pic14/gen.c:7277:genCast
                      02385 ;;      1009
                      02386 ;;      1028  _PORTD   offset=0
                      02387         .line   44; "Keypad.c"  GPIO_InitPortPin(KEYPAD_ROW1_DR,   Keypad_Row1,  GPIO_IN);
01FD   ???? ????      02388         BANKSEL _PORTD
01FF   08??           02389         MOVF    _PORTD,W
                      02390 ;; >>> /home/sdcc-builder/build/sdcc-build/orig/sdcc/src/pic14/gen.c:7278:genCast
                      02391 ;;      1109 rIdx = r0x1048 
0200   ???? ????      02392         BANKSEL r0x1006
0202   00??           02393         MOVWF   r0x1006
                      02394 ;;; /home/sdcc-builder/build/sdcc-build/orig/sdcc/src/pic14/gen.c:2316:resultRemat *{*
                      02395 ;;; /home/sdcc-builder/build/sdcc-build/orig/sdcc/src/pic14/gen.c:3919:genAnd *{*
                      02396 ;; ***  genAnd  3920
                      02397 ;;      694 register type nRegs=1
                      02398 ;;      694 register type nRegs=1
                      02399 ;;      line = 3955 result AOP_REG=r0x1048, size=1, left AOP_REG=r0x1048, size=1, right AOP_LIT=0xf7, si
                            ze=1
                      02400 ;; >>> /home/sdcc-builder/build/sdcc-build/orig/sdcc/src/pic14/gen.c:4122:genAnd
0203   11??           02401         BCF     r0x1006,3
                      02402 ;;; /home/sdcc-builder/build/sdcc-build/orig/sdcc/src/pic14/gen.c:2316:resultRemat *{*
                      02403 ;;; /home/sdcc-builder/build/sdcc-build/orig/sdcc/src/pic14/gen.c:4220:genOr *{*
                      02404 ;; ***  genOr  4221
                      02405 ;;      694 register type nRegs=1
                      02406 ;; ***  aopForSym 315
                      02407 ;;      327 sym->rname = _PORTD, size = 1
                      02408 ;;      line = 4227 result AOP_DIR=_PORTD, size=1, left AOP_REG=r0x1048, size=1, right AOP_LIT=0x08, siz
                            e=1
                      02409 ;;      line = 4253 result AOP_DIR=_PORTD, size=1, left AOP_REG=r0x1048, size=1, right AOP_LIT=0x08, siz
                            e=1
                      02410 ;; >>> /home/sdcc-builder/build/sdcc-build/orig/sdcc/src/pic14/gen.c:4470:genOr
0204   3008           02411         MOVLW   0x08
                      02412 ;; >>> /home/sdcc-builder/build/sdcc-build/orig/sdcc/src/pic14/gen.c:4471:genOr
                      02413 ;;      1109 rIdx = r0x1048 
0205   04??           02414         IORWF   r0x1006,W
                      02415 ;; >>> /home/sdcc-builder/build/sdcc-build/orig/sdcc/src/pic14/gen.c:4472:genOr
                      02416 ;;      1009
                      02417 ;;      1028  _PORTD   offset=0
0206   ???? ????      02418         BANKSEL _PORTD
0208   00??           02419         MOVWF   _PORTD
                      02420 ;;; /home/sdcc-builder/build/sdcc-build/orig/sdcc/src/pic14/gen.c:2316:resultRemat *{*
                      02421 ;;; /home/sdcc-builder/build/sdcc-build/orig/sdcc/src/pic14/gen.c:7120:genCast *{*
                      02422 ;; ***  genCast  7121
                      02423 ;; ***  aopForSym 315
gpasm-1.4.0 #1106 (Oct  6 2014) obj\Debug\Key   7-1-2020  22:33:06          PAGE 48


LOC    OBJECT CODE    LINE  SOURCE TEXT
  VALUE

                      02424 ;;      327 sym->rname = _PORTD, size = 1
                      02425 ;;      694 register type nRegs=1
                      02426 ;;      line = 7129 result AOP_REG=r0x1048, size=1, left -=-, size=0, right AOP_DIR=_PORTD, size=1
                      02427 ;; ***  genCast  7253
                      02428 ;; >>> /home/sdcc-builder/build/sdcc-build/orig/sdcc/src/pic14/gen.c:7277:genCast
                      02429 ;;      1009
                      02430 ;;      1028  _PORTD   offset=0
                      02431         .line   45; "Keypad.c"  GPIO_InitPortPin(KEYPAD_ROW2_DR,   Keypad_Row2,  GPIO_IN);
0209   08??           02432         MOVF    _PORTD,W
                      02433 ;; >>> /home/sdcc-builder/build/sdcc-build/orig/sdcc/src/pic14/gen.c:7278:genCast
                      02434 ;;      1109 rIdx = r0x1048 
020A   ???? ????      02435         BANKSEL r0x1006
020C   00??           02436         MOVWF   r0x1006
                      02437 ;;; /home/sdcc-builder/build/sdcc-build/orig/sdcc/src/pic14/gen.c:2316:resultRemat *{*
                      02438 ;;; /home/sdcc-builder/build/sdcc-build/orig/sdcc/src/pic14/gen.c:3919:genAnd *{*
                      02439 ;; ***  genAnd  3920
                      02440 ;;      694 register type nRegs=1
                      02441 ;;      694 register type nRegs=1
                      02442 ;;      line = 3955 result AOP_REG=r0x1048, size=1, left AOP_REG=r0x1048, size=1, right AOP_LIT=0xfb, si
                            ze=1
                      02443 ;; >>> /home/sdcc-builder/build/sdcc-build/orig/sdcc/src/pic14/gen.c:4122:genAnd
020D   11??           02444         BCF     r0x1006,2
                      02445 ;;; /home/sdcc-builder/build/sdcc-build/orig/sdcc/src/pic14/gen.c:2316:resultRemat *{*
                      02446 ;;; /home/sdcc-builder/build/sdcc-build/orig/sdcc/src/pic14/gen.c:4220:genOr *{*
                      02447 ;; ***  genOr  4221
                      02448 ;;      694 register type nRegs=1
                      02449 ;; ***  aopForSym 315
                      02450 ;;      327 sym->rname = _PORTD, size = 1
                      02451 ;;      line = 4227 result AOP_DIR=_PORTD, size=1, left AOP_REG=r0x1048, size=1, right AOP_LIT=0x04, siz
                            e=1
                      02452 ;;      line = 4253 result AOP_DIR=_PORTD, size=1, left AOP_REG=r0x1048, size=1, right AOP_LIT=0x04, siz
                            e=1
                      02453 ;; >>> /home/sdcc-builder/build/sdcc-build/orig/sdcc/src/pic14/gen.c:4470:genOr
020E   3004           02454         MOVLW   0x04
                      02455 ;; >>> /home/sdcc-builder/build/sdcc-build/orig/sdcc/src/pic14/gen.c:4471:genOr
                      02456 ;;      1109 rIdx = r0x1048 
020F   04??           02457         IORWF   r0x1006,W
                      02458 ;; >>> /home/sdcc-builder/build/sdcc-build/orig/sdcc/src/pic14/gen.c:4472:genOr
                      02459 ;;      1009
                      02460 ;;      1028  _PORTD   offset=0
0210   ???? ????      02461         BANKSEL _PORTD
0212   00??           02462         MOVWF   _PORTD
                      02463 ;;; /home/sdcc-builder/build/sdcc-build/orig/sdcc/src/pic14/gen.c:2316:resultRemat *{*
                      02464 ;;; /home/sdcc-builder/build/sdcc-build/orig/sdcc/src/pic14/gen.c:7120:genCast *{*
                      02465 ;; ***  genCast  7121
                      02466 ;; ***  aopForSym 315
                      02467 ;;      327 sym->rname = _PORTD, size = 1
                      02468 ;;      694 register type nRegs=1
                      02469 ;;      line = 7129 result AOP_REG=r0x1048, size=1, left -=-, size=0, right AOP_DIR=_PORTD, size=1
                      02470 ;; ***  genCast  7253
                      02471 ;; >>> /home/sdcc-builder/build/sdcc-build/orig/sdcc/src/pic14/gen.c:7277:genCast
                      02472 ;;      1009
                      02473 ;;      1028  _PORTD   offset=0
gpasm-1.4.0 #1106 (Oct  6 2014) obj\Debug\Key   7-1-2020  22:33:06          PAGE 49


LOC    OBJECT CODE    LINE  SOURCE TEXT
  VALUE

                      02474         .line   46; "Keypad.c"  GPIO_InitPortPin(KEYPAD_ROW3_DR,   Keypad_Row3,  GPIO_IN);
0213   08??           02475         MOVF    _PORTD,W
                      02476 ;; >>> /home/sdcc-builder/build/sdcc-build/orig/sdcc/src/pic14/gen.c:7278:genCast
                      02477 ;;      1109 rIdx = r0x1048 
0214   ???? ????      02478         BANKSEL r0x1006
0216   00??           02479         MOVWF   r0x1006
                      02480 ;;; /home/sdcc-builder/build/sdcc-build/orig/sdcc/src/pic14/gen.c:2316:resultRemat *{*
                      02481 ;;; /home/sdcc-builder/build/sdcc-build/orig/sdcc/src/pic14/gen.c:3919:genAnd *{*
                      02482 ;; ***  genAnd  3920
                      02483 ;;      694 register type nRegs=1
                      02484 ;;      694 register type nRegs=1
                      02485 ;;      line = 3955 result AOP_REG=r0x1048, size=1, left AOP_REG=r0x1048, size=1, right AOP_LIT=0xfd, si
                            ze=1
                      02486 ;; >>> /home/sdcc-builder/build/sdcc-build/orig/sdcc/src/pic14/gen.c:4122:genAnd
0217   10??           02487         BCF     r0x1006,1
                      02488 ;;; /home/sdcc-builder/build/sdcc-build/orig/sdcc/src/pic14/gen.c:2316:resultRemat *{*
                      02489 ;;; /home/sdcc-builder/build/sdcc-build/orig/sdcc/src/pic14/gen.c:4220:genOr *{*
                      02490 ;; ***  genOr  4221
                      02491 ;;      694 register type nRegs=1
                      02492 ;; ***  aopForSym 315
                      02493 ;;      327 sym->rname = _PORTD, size = 1
                      02494 ;;      line = 4227 result AOP_DIR=_PORTD, size=1, left AOP_REG=r0x1048, size=1, right AOP_LIT=0x02, siz
                            e=1
                      02495 ;;      line = 4253 result AOP_DIR=_PORTD, size=1, left AOP_REG=r0x1048, size=1, right AOP_LIT=0x02, siz
                            e=1
                      02496 ;; >>> /home/sdcc-builder/build/sdcc-build/orig/sdcc/src/pic14/gen.c:4470:genOr
0218   3002           02497         MOVLW   0x02
                      02498 ;; >>> /home/sdcc-builder/build/sdcc-build/orig/sdcc/src/pic14/gen.c:4471:genOr
                      02499 ;;      1109 rIdx = r0x1048 
0219   04??           02500         IORWF   r0x1006,W
                      02501 ;; >>> /home/sdcc-builder/build/sdcc-build/orig/sdcc/src/pic14/gen.c:4472:genOr
                      02502 ;;      1009
                      02503 ;;      1028  _PORTD   offset=0
021A   ???? ????      02504         BANKSEL _PORTD
021C   00??           02505         MOVWF   _PORTD
                      02506 ;;; /home/sdcc-builder/build/sdcc-build/orig/sdcc/src/pic14/gen.c:2316:resultRemat *{*
                      02507 ;;; /home/sdcc-builder/build/sdcc-build/orig/sdcc/src/pic14/gen.c:7120:genCast *{*
                      02508 ;; ***  genCast  7121
                      02509 ;; ***  aopForSym 315
                      02510 ;;      327 sym->rname = _PORTD, size = 1
                      02511 ;;      694 register type nRegs=1
                      02512 ;;      line = 7129 result AOP_REG=r0x1048, size=1, left -=-, size=0, right AOP_DIR=_PORTD, size=1
                      02513 ;; ***  genCast  7253
                      02514 ;; >>> /home/sdcc-builder/build/sdcc-build/orig/sdcc/src/pic14/gen.c:7277:genCast
                      02515 ;;      1009
                      02516 ;;      1028  _PORTD   offset=0
                      02517         .line   47; "Keypad.c"  GPIO_InitPortPin(KEYPAD_ROW4_DR,   Keypad_Row4,  GPIO_IN);
021D   08??           02518         MOVF    _PORTD,W
                      02519 ;; >>> /home/sdcc-builder/build/sdcc-build/orig/sdcc/src/pic14/gen.c:7278:genCast
                      02520 ;;      1109 rIdx = r0x1048 
021E   ???? ????      02521         BANKSEL r0x1006
0220   00??           02522         MOVWF   r0x1006
                      02523 ;;; /home/sdcc-builder/build/sdcc-build/orig/sdcc/src/pic14/gen.c:2316:resultRemat *{*
gpasm-1.4.0 #1106 (Oct  6 2014) obj\Debug\Key   7-1-2020  22:33:06          PAGE 50


LOC    OBJECT CODE    LINE  SOURCE TEXT
  VALUE

                      02524 ;;; /home/sdcc-builder/build/sdcc-build/orig/sdcc/src/pic14/gen.c:3919:genAnd *{*
                      02525 ;; ***  genAnd  3920
                      02526 ;;      694 register type nRegs=1
                      02527 ;;      694 register type nRegs=1
                      02528 ;;      line = 3955 result AOP_REG=r0x1048, size=1, left AOP_REG=r0x1048, size=1, right AOP_LIT=0xfe, si
                            ze=1
                      02529 ;; >>> /home/sdcc-builder/build/sdcc-build/orig/sdcc/src/pic14/gen.c:4122:genAnd
0221   10??           02530         BCF     r0x1006,0
                      02531 ;;; /home/sdcc-builder/build/sdcc-build/orig/sdcc/src/pic14/gen.c:2316:resultRemat *{*
                      02532 ;;; /home/sdcc-builder/build/sdcc-build/orig/sdcc/src/pic14/gen.c:4220:genOr *{*
                      02533 ;; ***  genOr  4221
                      02534 ;;      694 register type nRegs=1
                      02535 ;; ***  aopForSym 315
                      02536 ;;      327 sym->rname = _PORTD, size = 1
                      02537 ;;      line = 4227 result AOP_DIR=_PORTD, size=1, left AOP_REG=r0x1048, size=1, right AOP_LIT=0x01, siz
                            e=1
                      02538 ;;      line = 4253 result AOP_DIR=_PORTD, size=1, left AOP_REG=r0x1048, size=1, right AOP_LIT=0x01, siz
                            e=1
                      02539 ;; >>> /home/sdcc-builder/build/sdcc-build/orig/sdcc/src/pic14/gen.c:4470:genOr
0222   3001           02540         MOVLW   0x01
                      02541 ;; >>> /home/sdcc-builder/build/sdcc-build/orig/sdcc/src/pic14/gen.c:4471:genOr
                      02542 ;;      1109 rIdx = r0x1048 
0223   04??           02543         IORWF   r0x1006,W
                      02544 ;; >>> /home/sdcc-builder/build/sdcc-build/orig/sdcc/src/pic14/gen.c:4472:genOr
                      02545 ;;      1009
                      02546 ;;      1028  _PORTD   offset=0
0224   ???? ????      02547         BANKSEL _PORTD
0226   00??           02548         MOVWF   _PORTD
                      02549 ;;; /home/sdcc-builder/build/sdcc-build/orig/sdcc/src/pic14/gen.c:2316:resultRemat *{*
                      02550 ;;; /home/sdcc-builder/build/sdcc-build/orig/sdcc/src/pic14/gen.c:7120:genCast *{*
                      02551 ;; ***  genCast  7121
                      02552 ;; ***  aopForSym 315
                      02553 ;;      327 sym->rname = _PORTB, size = 1
                      02554 ;;      694 register type nRegs=1
                      02555 ;;      line = 7129 result AOP_REG=r0x1048, size=1, left -=-, size=0, right AOP_DIR=_PORTB, size=1
                      02556 ;; ***  genCast  7253
                      02557 ;; >>> /home/sdcc-builder/build/sdcc-build/orig/sdcc/src/pic14/gen.c:7277:genCast
                      02558 ;;      1009
                      02559 ;;      1028  _PORTB   offset=0
                      02560         .line   50; "Keypad.c"  GPIO_InitPortPin(KEYPAD_COLUMN1_DR,Keypad_Column1,GPIO_OUT);
0227   08??           02561         MOVF    _PORTB,W
                      02562 ;; >>> /home/sdcc-builder/build/sdcc-build/orig/sdcc/src/pic14/gen.c:7278:genCast
                      02563 ;;      1109 rIdx = r0x1048 
0228   ???? ????      02564         BANKSEL r0x1006
022A   00??           02565         MOVWF   r0x1006
                      02566 ;;; /home/sdcc-builder/build/sdcc-build/orig/sdcc/src/pic14/gen.c:2316:resultRemat *{*
                      02567 ;;; /home/sdcc-builder/build/sdcc-build/orig/sdcc/src/pic14/gen.c:3919:genAnd *{*
                      02568 ;; ***  genAnd  3920
                      02569 ;;      694 register type nRegs=1
                      02570 ;; ***  aopForSym 315
                      02571 ;;      327 sym->rname = _PORTB, size = 1
                      02572 ;;      line = 3955 result AOP_DIR=_PORTB, size=1, left AOP_REG=r0x1048, size=1, right AOP_LIT=0xfe, siz
                            e=1
gpasm-1.4.0 #1106 (Oct  6 2014) obj\Debug\Key   7-1-2020  22:33:06          PAGE 51


LOC    OBJECT CODE    LINE  SOURCE TEXT
  VALUE

                      02573 ;; >>> /home/sdcc-builder/build/sdcc-build/orig/sdcc/src/pic14/gen.c:4190:genAnd
022B   30FE           02574         MOVLW   0xfe
                      02575 ;; >>> /home/sdcc-builder/build/sdcc-build/orig/sdcc/src/pic14/gen.c:4191:genAnd
                      02576 ;;      1109 rIdx = r0x1048 
022C   05??           02577         ANDWF   r0x1006,W
                      02578 ;; >>> /home/sdcc-builder/build/sdcc-build/orig/sdcc/src/pic14/gen.c:4192:genAnd
                      02579 ;;      1009
                      02580 ;;      1028  _PORTB   offset=0
022D   ???? ????      02581         BANKSEL _PORTB
022F   00??           02582         MOVWF   _PORTB
                      02583 ;;; /home/sdcc-builder/build/sdcc-build/orig/sdcc/src/pic14/gen.c:2316:resultRemat *{*
                      02584 ;;; /home/sdcc-builder/build/sdcc-build/orig/sdcc/src/pic14/gen.c:7120:genCast *{*
                      02585 ;; ***  genCast  7121
                      02586 ;; ***  aopForSym 315
                      02587 ;;      327 sym->rname = _PORTB, size = 1
                      02588 ;;      694 register type nRegs=1
                      02589 ;;      line = 7129 result AOP_REG=r0x1048, size=1, left -=-, size=0, right AOP_DIR=_PORTB, size=1
                      02590 ;; ***  genCast  7253
                      02591 ;; >>> /home/sdcc-builder/build/sdcc-build/orig/sdcc/src/pic14/gen.c:7277:genCast
                      02592 ;;      1009
                      02593 ;;      1028  _PORTB   offset=0
                      02594         .line   51; "Keypad.c"  GPIO_InitPortPin(KEYPAD_COLUMN2_DR,Keypad_Column2,GPIO_OUT);
0230   08??           02595         MOVF    _PORTB,W
                      02596 ;; >>> /home/sdcc-builder/build/sdcc-build/orig/sdcc/src/pic14/gen.c:7278:genCast
                      02597 ;;      1109 rIdx = r0x1048 
0231   ???? ????      02598         BANKSEL r0x1006
0233   00??           02599         MOVWF   r0x1006
                      02600 ;;; /home/sdcc-builder/build/sdcc-build/orig/sdcc/src/pic14/gen.c:2316:resultRemat *{*
                      02601 ;;; /home/sdcc-builder/build/sdcc-build/orig/sdcc/src/pic14/gen.c:3919:genAnd *{*
                      02602 ;; ***  genAnd  3920
                      02603 ;;      694 register type nRegs=1
                      02604 ;; ***  aopForSym 315
                      02605 ;;      327 sym->rname = _PORTB, size = 1
                      02606 ;;      line = 3955 result AOP_DIR=_PORTB, size=1, left AOP_REG=r0x1048, size=1, right AOP_LIT=0xfd, siz
                            e=1
                      02607 ;; >>> /home/sdcc-builder/build/sdcc-build/orig/sdcc/src/pic14/gen.c:4190:genAnd
0234   30FD           02608         MOVLW   0xfd
                      02609 ;; >>> /home/sdcc-builder/build/sdcc-build/orig/sdcc/src/pic14/gen.c:4191:genAnd
                      02610 ;;      1109 rIdx = r0x1048 
0235   05??           02611         ANDWF   r0x1006,W
                      02612 ;; >>> /home/sdcc-builder/build/sdcc-build/orig/sdcc/src/pic14/gen.c:4192:genAnd
                      02613 ;;      1009
                      02614 ;;      1028  _PORTB   offset=0
0236   ???? ????      02615         BANKSEL _PORTB
0238   00??           02616         MOVWF   _PORTB
                      02617 ;;; /home/sdcc-builder/build/sdcc-build/orig/sdcc/src/pic14/gen.c:2316:resultRemat *{*
                      02618 ;;; /home/sdcc-builder/build/sdcc-build/orig/sdcc/src/pic14/gen.c:7120:genCast *{*
                      02619 ;; ***  genCast  7121
                      02620 ;; ***  aopForSym 315
                      02621 ;;      327 sym->rname = _PORTB, size = 1
                      02622 ;;      694 register type nRegs=1
                      02623 ;;      line = 7129 result AOP_REG=r0x1048, size=1, left -=-, size=0, right AOP_DIR=_PORTB, size=1
                      02624 ;; ***  genCast  7253
gpasm-1.4.0 #1106 (Oct  6 2014) obj\Debug\Key   7-1-2020  22:33:06          PAGE 52


LOC    OBJECT CODE    LINE  SOURCE TEXT
  VALUE

                      02625 ;; >>> /home/sdcc-builder/build/sdcc-build/orig/sdcc/src/pic14/gen.c:7277:genCast
                      02626 ;;      1009
                      02627 ;;      1028  _PORTB   offset=0
                      02628         .line   52; "Keypad.c"  GPIO_InitPortPin(KEYPAD_COLUMN3_DR,Keypad_Column3,GPIO_OUT);
0239   08??           02629         MOVF    _PORTB,W
                      02630 ;; >>> /home/sdcc-builder/build/sdcc-build/orig/sdcc/src/pic14/gen.c:7278:genCast
                      02631 ;;      1109 rIdx = r0x1048 
023A   ???? ????      02632         BANKSEL r0x1006
023C   00??           02633         MOVWF   r0x1006
                      02634 ;;; /home/sdcc-builder/build/sdcc-build/orig/sdcc/src/pic14/gen.c:2316:resultRemat *{*
                      02635 ;;; /home/sdcc-builder/build/sdcc-build/orig/sdcc/src/pic14/gen.c:3919:genAnd *{*
                      02636 ;; ***  genAnd  3920
                      02637 ;;      694 register type nRegs=1
                      02638 ;; ***  aopForSym 315
                      02639 ;;      327 sym->rname = _PORTB, size = 1
                      02640 ;;      line = 3955 result AOP_DIR=_PORTB, size=1, left AOP_REG=r0x1048, size=1, right AOP_LIT=0xfb, siz
                            e=1
                      02641 ;; >>> /home/sdcc-builder/build/sdcc-build/orig/sdcc/src/pic14/gen.c:4190:genAnd
023D   30FB           02642         MOVLW   0xfb
                      02643 ;; >>> /home/sdcc-builder/build/sdcc-build/orig/sdcc/src/pic14/gen.c:4191:genAnd
                      02644 ;;      1109 rIdx = r0x1048 
023E   05??           02645         ANDWF   r0x1006,W
                      02646 ;; >>> /home/sdcc-builder/build/sdcc-build/orig/sdcc/src/pic14/gen.c:4192:genAnd
                      02647 ;;      1009
                      02648 ;;      1028  _PORTB   offset=0
023F   ???? ????      02649         BANKSEL _PORTB
0241   00??           02650         MOVWF   _PORTB
                      02651 ;;; /home/sdcc-builder/build/sdcc-build/orig/sdcc/src/pic14/gen.c:2316:resultRemat *{*
                      02652 ;;; /home/sdcc-builder/build/sdcc-build/orig/sdcc/src/pic14/gen.c:2760:genLabel *{*
                      02653 ;; ***  genLabel  2763
                      02654 ;;; /home/sdcc-builder/build/sdcc-build/orig/sdcc/src/pic14/gen.c:2316:resultRemat *{*
                      02655 ;;; /home/sdcc-builder/build/sdcc-build/orig/sdcc/src/pic14/gen.c:2528:genEndFunction *{*
                      02656 ;; ***  genEndFunction  2530
0242   0008           02657         RETURN  
                      02658 ; exit point of _Keypad_Init
                      02659 ;;; /home/sdcc-builder/build/sdcc-build/orig/sdcc/src/pic14/gen.c:7426:genpic14Code *{*
                      02660 
                      02661 
                      02662 ;       code size estimation:
                      02663 ;         393+   93 =   486 instructions ( 1158 byte)
                      02664 
                      02665         end
gpasm-1.4.0 #1106 (Oct  6 2014) obj\Debug\Key   7-1-2020  22:33:06          PAGE 53


SYMBOL TABLE
  LABEL                             VALUE

ACKDT                             00000005
ACKEN                             00000004
ACKSTAT                           00000006
ADCON0                            0000001F
ADCON1                            0000009F
ADCS0                             00000006
ADCS1                             00000007
ADCS2                             00000006
ADDEN                             00000003
ADFM                              00000007
ADIE                              00000006
ADIF                              00000006
ADON                              00000000
ADRESH                            0000001E
ADRESL                            0000009E
BCLIE                             00000003
BCLIF                             00000003
BF                                00000000
BRGH                              00000002
C                                 00000000
C1INV                             00000004
C1OUT                             00000006
C2INV                             00000005
C2OUT                             00000007
CCP1CON                           00000017
CCP1IE                            00000002
CCP1IF                            00000002
CCP1M0                            00000000
CCP1M1                            00000001
CCP1M2                            00000002
CCP1M3                            00000003
CCP1X                             00000005
CCP1Y                             00000004
CCP2CON                           0000001D
CCP2IE                            00000000
CCP2IF                            00000000
CCP2M0                            00000000
CCP2M1                            00000001
CCP2M2                            00000002
CCP2M3                            00000003
CCP2X                             00000005
CCP2Y                             00000004
CCPR1                             00000015
CCPR1H                            00000016
CCPR1L                            00000015
CCPR2                             0000001B
CCPR2H                            0000001C
CCPR2L                            0000001B
CHS0                              00000003
CHS1                              00000004
CHS2                              00000005
CIS                               00000003
CKE                               00000006
gpasm-1.4.0 #1106 (Oct  6 2014) obj\Debug\Key   7-1-2020  22:33:06          PAGE 54


SYMBOL TABLE
  LABEL                             VALUE 

CKP                               00000004
CM0                               00000000
CM1                               00000001
CM2                               00000002
CMCON                             0000009C
CMIE                              00000006
CMIF                              00000006
CREN                              00000004
CSRC                              00000007
CVR0                              00000000
CVR1                              00000001
CVR2                              00000002
CVR3                              00000003
CVRCON                            0000009D
CVREN                             00000007
CVROE                             00000006
CVRR                              00000005
D                                 00000005
DATA_ADDRESS                      00000005
DC                                00000001
D_A                               00000005
D_NOT_A                           00000005
EEADR                             0000010D
EEADRH                            0000010F
EECON1                            0000018C
EECON2                            0000018D
EEDATA                            0000010C
EEDATH                            0000010E
EEIE                              00000004
EEIF                              00000004
EEPGD                             00000007
F                                 00000001
FERR                              00000002
FSR                               00000004
GCEN                              00000007
GIE                               00000007
GO                                00000002
GO_DONE                           00000002
GO_NOT_DONE                       00000002
I2C_DATA                          00000005
I2C_READ                          00000002
I2C_START                         00000003
I2C_STOP                          00000004
IBF                               00000007
IBOV                              00000005
INDF                              00000000
INTCON                            0000000B
INTE                              00000004
INTEDG                            00000006
INTF                              00000001
IRP                               00000007
NOT_A                             00000005
NOT_ADDRESS                       00000005
gpasm-1.4.0 #1106 (Oct  6 2014) obj\Debug\Key   7-1-2020  22:33:06          PAGE 55


SYMBOL TABLE
  LABEL                             VALUE 

NOT_BO                            00000000
NOT_BOR                           00000000
NOT_DONE                          00000002
NOT_PD                            00000003
NOT_POR                           00000001
NOT_RBPU                          00000007
NOT_RC8                           00000006
NOT_T1SYNC                        00000002
NOT_TO                            00000004
NOT_TX8                           00000006
NOT_W                             00000002
NOT_WRITE                         00000002
OBF                               00000006
OERR                              00000001
OPTION_REG                        00000081
P                                 00000004
PCFG0                             00000000
PCFG1                             00000001
PCFG2                             00000002
PCFG3                             00000003
PCL                               00000002
PCLATH                            0000000A
PCON                              0000008E
PEIE                              00000006
PEN                               00000002
PIE1                              0000008C
PIE2                              0000008D
PIR1                              0000000C
PIR2                              0000000D
PORTA                             00000005
PORTB                             00000006
PORTC                             00000007
PORTD                             00000008
PORTE                             00000009
PR2                               00000092
PS0                               00000000
PS1                               00000001
PS2                               00000002
PSA                               00000003
PSAVE                             00000000
PSPIE                             00000007
PSPIF                             00000007
PSPMODE                           00000004
R                                 00000002
RA0                               00000000
RA1                               00000001
RA2                               00000002
RA3                               00000003
RA4                               00000004
RA5                               00000005
RB0                               00000000
RB1                               00000001
RB2                               00000002
gpasm-1.4.0 #1106 (Oct  6 2014) obj\Debug\Key   7-1-2020  22:33:06          PAGE 56


SYMBOL TABLE
  LABEL                             VALUE 

RB3                               00000003
RB4                               00000004
RB5                               00000005
RB6                               00000006
RB7                               00000007
RBIE                              00000003
RBIF                              00000000
RC0                               00000000
RC1                               00000001
RC2                               00000002
RC3                               00000003
RC4                               00000004
RC5                               00000005
RC6                               00000006
RC7                               00000007
RC8_9                             00000006
RC9                               00000006
RCD8                              00000000
RCEN                              00000003
RCIE                              00000005
RCIF                              00000005
RCREG                             0000001A
RCSTA                             00000018
RD                                00000000
RD0                               00000000
RD1                               00000001
RD2                               00000002
RD3                               00000003
RD4                               00000004
RD5                               00000005
RD6                               00000006
RD7                               00000007
RE0                               00000000
RE1                               00000001
RE2                               00000002
READ_WRITE                        00000002
RP0                               00000005
RP1                               00000006
RSEN                              00000001
RX9                               00000006
RX9D                              00000000
R_NOT_W                           00000002
R_W                               00000002
S                                 00000003
SEN                               00000000
SMP                               00000007
SPBRG                             00000099
SPEN                              00000007
SREN                              00000005
SSAVE                             00000000
SSPADD                            00000093
SSPBUF                            00000013
SSPCON                            00000014
gpasm-1.4.0 #1106 (Oct  6 2014) obj\Debug\Key   7-1-2020  22:33:06          PAGE 57


SYMBOL TABLE
  LABEL                             VALUE 

SSPCON2                           00000091
SSPEN                             00000005
SSPIE                             00000003
SSPIF                             00000003
SSPM0                             00000000
SSPM1                             00000001
SSPM2                             00000002
SSPM3                             00000003
SSPOV                             00000006
SSPSTAT                           00000094
STATUS                            00000003
STK00                             00000000
STK01                             00000000
STK02                             00000000
STK03                             00000000
STK04                             00000000
STK05                             00000000
STK06                             00000000
STK07                             00000000
STK08                             00000000
STK09                             00000000
STK10                             00000000
STK11                             00000000
STK12                             00000000
SYNC                              00000004
T0CS                              00000005
T0IE                              00000005
T0IF                              00000002
T0SE                              00000004
T1CKPS0                           00000004
T1CKPS1                           00000005
T1CON                             00000010
T1INSYNC                          00000002
T1OSCEN                           00000003
T1SYNC                            00000002
T2CKPS0                           00000000
T2CKPS1                           00000001
T2CON                             00000012
TMR0                              00000001
TMR0IE                            00000005
TMR0IF                            00000002
TMR1                              0000000E
TMR1CS                            00000001
TMR1H                             0000000F
TMR1IE                            00000000
TMR1IF                            00000000
TMR1L                             0000000E
TMR1ON                            00000000
TMR2                              00000011
TMR2IE                            00000001
TMR2IF                            00000001
TMR2ON                            00000002
TOUTPS0                           00000003
gpasm-1.4.0 #1106 (Oct  6 2014) obj\Debug\Key   7-1-2020  22:33:06          PAGE 58


SYMBOL TABLE
  LABEL                             VALUE 

TOUTPS1                           00000004
TOUTPS2                           00000005
TOUTPS3                           00000006
TRISA                             00000085
TRISA0                            00000000
TRISA1                            00000001
TRISA2                            00000002
TRISA3                            00000003
TRISA4                            00000004
TRISA5                            00000005
TRISB                             00000086
TRISB0                            00000000
TRISB1                            00000001
TRISB2                            00000002
TRISB3                            00000003
TRISB4                            00000004
TRISB5                            00000005
TRISB6                            00000006
TRISB7                            00000007
TRISC                             00000087
TRISC0                            00000000
TRISC1                            00000001
TRISC2                            00000002
TRISC3                            00000003
TRISC4                            00000004
TRISC5                            00000005
TRISC6                            00000006
TRISC7                            00000007
TRISD                             00000088
TRISD0                            00000000
TRISD1                            00000001
TRISD2                            00000002
TRISD3                            00000003
TRISD4                            00000004
TRISD5                            00000005
TRISD6                            00000006
TRISD7                            00000007
TRISE                             00000089
TRISE0                            00000000
TRISE1                            00000001
TRISE2                            00000002
TRMT                              00000001
TX8_9                             00000006
TX9                               00000006
TX9D                              00000000
TXD8                              00000000
TXEN                              00000005
TXIE                              00000004
TXIF                              00000004
TXREG                             00000019
TXSTA                             00000098
UA                                00000001
W                                 00000000
gpasm-1.4.0 #1106 (Oct  6 2014) obj\Debug\Key   7-1-2020  22:33:06          PAGE 59


SYMBOL TABLE
  LABEL                             VALUE 

WCOL                              00000007
WR                                00000001
WREN                              00000002
WRERR                             00000003
WSAVE                             00000000
Z                                 00000002
_00125_DS_                        00000021
_00128_DS_                        00000043
_00131_DS_                        00000061
_00134_DS_                        0000007B
_00140_DS_                        00000070
_00143_DS_                        00000054
_00144_DS_                        00000088
_00146_DS_                        00000034
_00148_DS_                        0000009B
_00151_DS_                        000000BD
_00154_DS_                        000000DB
_00157_DS_                        000000F5
_00163_DS_                        000000EA
_00166_DS_                        000000CE
_00167_DS_                        00000102
_00169_DS_                        000000AE
_00171_DS_                        00000115
_00174_DS_                        00000137
_00177_DS_                        00000155
_00180_DS_                        0000016F
_00186_DS_                        00000164
_00189_DS_                        00000148
_00192_DS_                        00000128
_00195_DS_                        0000000E
_00197_DS_                        0000017B
_00208_DS_                        00000008
_ADCON0                           00000000
_ADCON0bits                       00000000
_ADCON1                           00000000
_ADCON1bits                       00000000
_ADRESH                           00000000
_ADRESL                           00000000
_BODEN_OFF                        00003FBF
_BODEN_ON                         00003FFF
_BOREN_OFF                        00003FBF
_BOREN_ON                         00003FFF
_CCP1CON                          00000000
_CCP1CONbits                      00000000
_CCP2CON                          00000000
_CCP2CONbits                      00000000
_CCPR1                            00000000
_CCPR1H                           00000000
_CCPR1L                           00000000
_CCPR2                            00000000
_CCPR2H                           00000000
_CCPR2L                           00000000
_CMCON                            00000000
gpasm-1.4.0 #1106 (Oct  6 2014) obj\Debug\Key   7-1-2020  22:33:06          PAGE 60


SYMBOL TABLE
  LABEL                             VALUE 

_CMCONbits                        00000000
_CONFIG                           00002007
_CPD_OFF                          00003FFF
_CPD_ON                           00003EFF
_CP_ALL                           00001FFF
_CP_OFF                           00003FFF
_CP_ON                            00001FFF
_CVRCON                           00000000
_CVRCONbits                       00000000
_DEBUG_OFF                        00003FFF
_DEBUG_ON                         000037FF
_DEVID1                           00002006
_EEADR                            00000000
_EEADRH                           00000000
_EECON1                           00000000
_EECON1bits                       00000000
_EECON2                           00000000
_EEDATA                           00000000
_EEDATH                           00000000
_FOSC_EXTRC                       00003FFF
_FOSC_HS                          00003FFE
_FOSC_LP                          00003FFC
_FOSC_XT                          00003FFD
_FSR                              00000000
_HS_OSC                           00003FFE
_IDLOC0                           00002000
_IDLOC1                           00002001
_IDLOC2                           00002002
_IDLOC3                           00002003
_INDF                             00000000
_INTCON                           00000000
_INTCONbits                       00000000
_Keypad_GetKey                    00000009
_Keypad_GetKey_Character_1_77     00000004
_Keypad_Init                      000001FD
_Keypad_Scan                      0000000E
_Keypad_Update                    00000000
_Keypad_Update_Keypad_Counter_1_79  00000005
_LP_OSC                           00003FFC
_LVP_OFF                          00003F7F
_LVP_ON                           00003FFF
_LastPressed                      00000000
_OPTION_REG                       00000000
_OPTION_REGbits                   00000000
_PCL                              00000000
_PCLATH                           00000000
_PCON                             00000000
_PCONbits                         00000000
_PIE1                             00000000
_PIE1bits                         00000000
_PIE2                             00000000
_PIE2bits                         00000000
_PIR1                             00000000
gpasm-1.4.0 #1106 (Oct  6 2014) obj\Debug\Key   7-1-2020  22:33:06          PAGE 61


SYMBOL TABLE
  LABEL                             VALUE 

_PIR1bits                         00000000
_PIR2                             00000000
_PIR2bits                         00000000
_PORTA                            00000000
_PORTAbits                        00000000
_PORTB                            00000000
_PORTBbits                        00000000
_PORTC                            00000000
_PORTCbits                        00000000
_PORTD                            00000000
_PORTDbits                        00000000
_PORTE                            00000000
_PORTEbits                        00000000
_PR2                              00000000
_PWRTE_OFF                        00003FFF
_PWRTE_ON                         00003FF7
_RCREG                            00000000
_RCSTA                            00000000
_RCSTAbits                        00000000
_RC_OSC                           00003FFF
_ResetCols                        0000017C
_SPBRG                            00000000
_SSPADD                           00000000
_SSPBUF                           00000000
_SSPCON                           00000000
_SSPCON2                          00000000
_SSPCON2bits                      00000000
_SSPCONbits                       00000000
_SSPSTAT                          00000000
_SSPSTATbits                      00000000
_STATUS                           00000000
_STATUSbits                       00000000
_SetColOne                        000001DD
_SetColThree                      0000019D
_SetColTwo                        000001BD
_T1CON                            00000000
_T1CONbits                        00000000
_T2CON                            00000000
_T2CONbits                        00000000
_TMR0                             00000000
_TMR1                             00000000
_TMR1H                            00000000
_TMR1L                            00000000
_TMR2                             00000000
_TRISA                            00000000
_TRISAbits                        00000000
_TRISB                            00000000
_TRISBbits                        00000000
_TRISC                            00000000
_TRISCbits                        00000000
_TRISD                            00000000
_TRISDbits                        00000000
_TRISE                            00000000
gpasm-1.4.0 #1106 (Oct  6 2014) obj\Debug\Key   7-1-2020  22:33:06          PAGE 62


SYMBOL TABLE
  LABEL                             VALUE 

_TRISEbits                        00000000
_TXREG                            00000000
_TXSTA                            00000000
_TXSTAbits                        00000000
_WDTE_OFF                         00003FFB
_WDTE_ON                          00003FFF
_WDT_OFF                          00003FFB
_WDT_ON                           00003FFF
_WRT_1FOURTH                      00003BFF
_WRT_256                          00003DFF
_WRT_HALF                         000039FF
_WRT_OFF                          00003FFF
_XT_OSC                           00003FFD
__16F877A                         00000001
__CODE_END                        00001FFF
__CODE_START                      00000000
__COMMON_RAM_END                  0000007F
__COMMON_RAM_START                00000070
__EEPROM_END                      000021FF
__EEPROM_START                    00002100
__VECTOR_INT                      00000004
__VECTOR_RESET                    00000000
__itoa                            00000000
__ltoa                            00000000
__print_format                    00000000
__uitoa                           00000000
__ultoa                           00000000
_abs                              00000000
_atof                             00000000
_atoi                             00000000
_atol                             00000000
_calloc                           00000000
_free                             00000000
_getchar                          00000000
_gets                             00000000
_labs                             00000000
_malloc                           00000000
_memchr                           00000000
_memcmp                           00000000
_memcpy                           00000000
_memmove                          00000000
_memset                           00000000
_printf                           00000000
_printf_small                     00000000
_putchar                          00000000
_puts                             00000000
_rand                             00000000
_realloc                          00000000
_sprintf                          00000000
_srand                            00000000
_strcat                           00000000
_strchr                           00000000
_strcmp                           00000000
gpasm-1.4.0 #1106 (Oct  6 2014) obj\Debug\Key   7-1-2020  22:33:06          PAGE 63


SYMBOL TABLE
  LABEL                             VALUE 

_strcpy                           00000000
_strcspn                          00000000
_strlen                           00000000
_strncat                          00000000
_strncmp                          00000000
_strncpy                          00000000
_strpbrk                          00000000
_strrchr                          00000000
_strspn                           00000000
_strstr                           00000000
_strtok                           00000000
_strxfrm                          00000000
_vprintf                          00000000
_vsprintf                         00000000
r0x1003                           00000001
r0x1004                           00000002
r0x1005                           00000003
r0x1006                           00000000

Errors   :     0
Warnings :     0 reported,     0 suppressed
Messages :     0 reported,     0 suppressed

