gpasm-1.4.0 #1106 (Oct  6 2014) obj\Debug\WH.   7-7-2020  18:11:58          PAGE  1


LOC    OBJECT CODE    LINE  SOURCE TEXT
  VALUE

                      00001 ;--------------------------------------------------------
                      00002 ; File Created by SDCC : free open source ANSI-C Compiler
                      00003 ; Version 3.5.0 #9253 (Jun 20 2015) (MINGW32)
                      00004 ; This file was generated Tue Jul 07 18:11:58 2020
                      00005 ;--------------------------------------------------------
                      00006 ; PIC port for the 14-bit core
                      00007 ;--------------------------------------------------------
                      00008         .file   "WH.c"
                      00009         list    p=16f877a
                      00010         radix dec
                      00011         include "p16f877a.inc"
                      00001         LIST
                      00002 
                      00003 ;==========================================================================
                      00004 ; Build date : Aug 07 2014
                      00005 ;  MPASM PIC16F877A processor include
                      00006 ; 
                      00007 ;  (c) Copyright 1999-2014 Microchip Technology, All rights reserved
                      00008 ;==========================================================================
                      00009 
                      00567         LIST
                      00012 ;--------------------------------------------------------
                      00013 ; external declarations
                      00014 ;--------------------------------------------------------
  0000                00015         extern  __print_format
  0000                00016         extern  _printf_small
  0000                00017         extern  _printf
  0000                00018         extern  _vprintf
  0000                00019         extern  _sprintf
  0000                00020         extern  _vsprintf
  0000                00021         extern  _puts
  0000                00022         extern  _gets
  0000                00023         extern  _getchar
  0000                00024         extern  _putchar
  0000                00025         extern  _calloc
  0000                00026         extern  _malloc
  0000                00027         extern  _realloc
  0000                00028         extern  _free
  0000                00029         extern  _abs
  0000                00030         extern  _labs
  0000                00031         extern  _atof
  0000                00032         extern  _atoi
  0000                00033         extern  _atol
  0000                00034         extern  __uitoa
  0000                00035         extern  __itoa
  0000                00036         extern  __ultoa
  0000                00037         extern  __ltoa
  0000                00038         extern  _rand
  0000                00039         extern  _srand
  0000                00040         extern  _SW_Init
  0000                00041         extern  _SW_GetState
  0000                00042         extern  _SW_Update
  0000                00043         extern  _TMR_Init
gpasm-1.4.0 #1106 (Oct  6 2014) obj\Debug\WH.   7-7-2020  18:11:58          PAGE  2


LOC    OBJECT CODE    LINE  SOURCE TEXT
  VALUE

  0000                00044         extern  _TMR_Start
  0000                00045         extern  _TMR_CheckOverFlow
  0000                00046         extern  _TMR_Stop
  0000                00047         extern  _TMR_Update
  0000                00048         extern  _Cool_Init
  0000                00049         extern  _Cool_SetState
  0000                00050         extern  _Cool_GetState
  0000                00051         extern  _Cool_Update
  0000                00052         extern  _Heat_Init
  0000                00053         extern  _Heat_SetState
  0000                00054         extern  _Heat_GetState
  0000                00055         extern  _Heat_Update
  0000                00056         extern  _TempS_Init
  0000                00057         extern  _TempS_GetTemp
  0000                00058         extern  _TempS_AvgReadings
  0000                00059         extern  _TempS_ReadDone
  0000                00060         extern  _TempS_CLRReadFlag
  0000                00061         extern  _TempS_Update
  0000                00062         extern  _EEPROM_Write
  0000                00063         extern  _EEPROM_Read
  0000                00064         extern  _STATUSbits
  0000                00065         extern  _PORTAbits
  0000                00066         extern  _PORTBbits
  0000                00067         extern  _PORTCbits
  0000                00068         extern  _PORTDbits
  0000                00069         extern  _PORTEbits
  0000                00070         extern  _INTCONbits
  0000                00071         extern  _PIR1bits
  0000                00072         extern  _PIR2bits
  0000                00073         extern  _T1CONbits
  0000                00074         extern  _T2CONbits
  0000                00075         extern  _SSPCONbits
  0000                00076         extern  _CCP1CONbits
  0000                00077         extern  _RCSTAbits
  0000                00078         extern  _CCP2CONbits
  0000                00079         extern  _ADCON0bits
  0000                00080         extern  _OPTION_REGbits
  0000                00081         extern  _TRISAbits
  0000                00082         extern  _TRISBbits
  0000                00083         extern  _TRISCbits
  0000                00084         extern  _TRISDbits
  0000                00085         extern  _TRISEbits
  0000                00086         extern  _PIE1bits
  0000                00087         extern  _PIE2bits
  0000                00088         extern  _PCONbits
  0000                00089         extern  _SSPCON2bits
  0000                00090         extern  _SSPSTATbits
  0000                00091         extern  _TXSTAbits
  0000                00092         extern  _CMCONbits
  0000                00093         extern  _CVRCONbits
  0000                00094         extern  _ADCON1bits
  0000                00095         extern  _EECON1bits
  0000                00096         extern  _INDF
gpasm-1.4.0 #1106 (Oct  6 2014) obj\Debug\WH.   7-7-2020  18:11:58          PAGE  3


LOC    OBJECT CODE    LINE  SOURCE TEXT
  VALUE

  0000                00097         extern  _TMR0
  0000                00098         extern  _PCL
  0000                00099         extern  _STATUS
  0000                00100         extern  _FSR
  0000                00101         extern  _PORTA
  0000                00102         extern  _PORTB
  0000                00103         extern  _PORTC
  0000                00104         extern  _PORTD
  0000                00105         extern  _PORTE
  0000                00106         extern  _PCLATH
  0000                00107         extern  _INTCON
  0000                00108         extern  _PIR1
  0000                00109         extern  _PIR2
  0000                00110         extern  _TMR1
  0000                00111         extern  _TMR1L
  0000                00112         extern  _TMR1H
  0000                00113         extern  _T1CON
  0000                00114         extern  _TMR2
  0000                00115         extern  _T2CON
  0000                00116         extern  _SSPBUF
  0000                00117         extern  _SSPCON
  0000                00118         extern  _CCPR1
  0000                00119         extern  _CCPR1L
  0000                00120         extern  _CCPR1H
  0000                00121         extern  _CCP1CON
  0000                00122         extern  _RCSTA
  0000                00123         extern  _TXREG
  0000                00124         extern  _RCREG
  0000                00125         extern  _CCPR2
  0000                00126         extern  _CCPR2L
  0000                00127         extern  _CCPR2H
  0000                00128         extern  _CCP2CON
  0000                00129         extern  _ADRESH
  0000                00130         extern  _ADCON0
  0000                00131         extern  _OPTION_REG
  0000                00132         extern  _TRISA
  0000                00133         extern  _TRISB
  0000                00134         extern  _TRISC
  0000                00135         extern  _TRISD
  0000                00136         extern  _TRISE
  0000                00137         extern  _PIE1
  0000                00138         extern  _PIE2
  0000                00139         extern  _PCON
  0000                00140         extern  _SSPCON2
  0000                00141         extern  _PR2
  0000                00142         extern  _SSPADD
  0000                00143         extern  _SSPSTAT
  0000                00144         extern  _TXSTA
  0000                00145         extern  _SPBRG
  0000                00146         extern  _CMCON
  0000                00147         extern  _CVRCON
  0000                00148         extern  _ADRESL
  0000                00149         extern  _ADCON1
gpasm-1.4.0 #1106 (Oct  6 2014) obj\Debug\WH.   7-7-2020  18:11:58          PAGE  4


LOC    OBJECT CODE    LINE  SOURCE TEXT
  VALUE

  0000                00150         extern  _EEDATA
  0000                00151         extern  _EEADR
  0000                00152         extern  _EEDATH
  0000                00153         extern  _EEADRH
  0000                00154         extern  _EECON1
  0000                00155         extern  _EECON2
                      00156 
  0000                00157         extern PSAVE
  0000                00158         extern SSAVE
  0000                00159         extern WSAVE
  0000                00160         extern STK12
  0000                00161         extern STK11
  0000                00162         extern STK10
  0000                00163         extern STK09
  0000                00164         extern STK08
  0000                00165         extern STK07
  0000                00166         extern STK06
  0000                00167         extern STK05
  0000                00168         extern STK04
  0000                00169         extern STK03
  0000                00170         extern STK02
  0000                00171         extern STK01
  0000                00172         extern STK00
                      00173 ;--------------------------------------------------------
                      00174 ; global declarations
                      00175 ;--------------------------------------------------------
  0000                00176         global  _WH_UsedTemp
  0000                00177         global  _WH_Set_Temp
  0000                00178         global  _WH_Update
  0000                00179         global  _WH_GetState
  0000                00180         global  _WH_GetTemp
  0000                00181         global  _WH_Init
  0000                00182         global  _Settings
                      00183 
                      00184 ;--------------------------------------------------------
                      00185 ; global definitions
                      00186 ;--------------------------------------------------------
                      00187 UD_WH_0 udata
0000                  00188 _Settings       res     1
                      00189 
                      00190 ;--------------------------------------------------------
                      00191 ; absolute symbol definitions
                      00192 ;--------------------------------------------------------
                      00193 ;--------------------------------------------------------
                      00194 ; compiler-defined variables
                      00195 ;--------------------------------------------------------
                      00196 UDL_WH_0        udata
0000                  00197 r0x100E res     1
0001                  00198 r0x100F res     1
0002                  00199 r0x1010 res     1
0003                  00200 r0x1011 res     1
0004                  00201 r0x1012 res     1
0005                  00202 r0x1013 res     1
gpasm-1.4.0 #1106 (Oct  6 2014) obj\Debug\WH.   7-7-2020  18:11:58          PAGE  5


LOC    OBJECT CODE    LINE  SOURCE TEXT
  VALUE

0006                  00203 r0x100C res     1
0007                  00204 r0x100D res     1
0008                  00205 _Current_Temp   res     1
0009                  00206 _WH_State       res     1
000A                  00207 _WH_Update_WH_counter_1_70      res     2
                      00208 ;--------------------------------------------------------
                      00209 ; initialized data
                      00210 ;--------------------------------------------------------
                      00211 
                      00212 ID_WH_0 idata
0000                  00213 _WH_Setting_Counter
0000   00 00          00214         db      0x00, 0x00
                      00215 
                      00216 
                      00217 ID_WH_1 idata
0000                  00218 _FirstClick
0000   00             00219         db      0x00
                      00220 
                      00221 ;--------------------------------------------------------
                      00222 ; overlayable items in internal ram 
                      00223 ;--------------------------------------------------------
                      00224 ;       udata_ovr
                      00225 ;--------------------------------------------------------
                      00226 ; code
                      00227 ;--------------------------------------------------------
                      00228 code_WH code
                      00229 ;***
                      00230 ;  pBlock Stats: dbName = C
                      00231 ;***
                      00232 ;entry:  _WH_UsedTemp   ;Function start
                      00233 ; 2 exit points
                      00234 ;has an exit
                      00235 ;functions called:
                      00236 ;   _WH_CheckFirstUse
                      00237 ;   _WH_FetchLastTemp
                      00238 ;   _WH_Set_Temp
                      00239 ;   _WH_CheckFirstUse
                      00240 ;   _WH_FetchLastTemp
                      00241 ;   _WH_Set_Temp
                      00242 ;2 compiler assigned registers:
                      00243 ;   r0x100A
                      00244 ;   STK00
                      00245 ;; Starting pCode block
                      00246 ;;; /home/sdcc-builder/build/sdcc-build/orig/sdcc/src/pic14/gen.c:2316:resultRemat *{*
                      00247 ;;; /home/sdcc-builder/build/sdcc-build/orig/sdcc/src/pic14/gen.c:2760:genLabel *{*
                      00248 ;; ***  genLabel  2763
                      00249 ;;; /home/sdcc-builder/build/sdcc-build/orig/sdcc/src/pic14/gen.c:2316:resultRemat *{*
                      00250 ;;; /home/sdcc-builder/build/sdcc-build/orig/sdcc/src/pic14/gen.c:2340:genFunction *{*
                      00251 ;; ***  genFunction  2342 curr label offset=166previous max_key=4 
0000                  00252 _WH_UsedTemp    ;Function start
                      00253 ; 2 exit points
                      00254 ;;; /home/sdcc-builder/build/sdcc-build/orig/sdcc/src/pic14/gen.c:2316:resultRemat *{*
                      00255 ;;; /home/sdcc-builder/build/sdcc-build/orig/sdcc/src/pic14/gen.c:2086:genCall *{*
gpasm-1.4.0 #1106 (Oct  6 2014) obj\Debug\WH.   7-7-2020  18:11:58          PAGE  6


LOC    OBJECT CODE    LINE  SOURCE TEXT
  VALUE

                      00256 ;; ***  genCall  2088
                      00257 ;;; /home/sdcc-builder/build/sdcc-build/orig/sdcc/src/pic14/gen.c:1801:saveRegisters *{*
                      00258 ;; ***  saveRegisters  1803
                      00259 ;; >>> /home/sdcc-builder/build/sdcc-build/orig/sdcc/src/pic14/gen.c:2175:genCall
                      00260         .line   297; "WH.c"     if(WH_CheckFirstUse()==1)
0000   2???           00261         CALL    _WH_CheckFirstUse
                      00262 ;;      694 register type nRegs=1
                      00263 ;;; /home/sdcc-builder/build/sdcc-build/orig/sdcc/src/pic14/gen.c:1907:assignResultValue *{*
                      00264 ;; ***  assignResultValue  1909
                      00265 ;;      line = 1911 result -=-, size=0, left AOP_REG=r0x105C, size=1, right -=-, size=0
                      00266 ;; >>> /home/sdcc-builder/build/sdcc-build/orig/sdcc/src/pic14/gen.c:1393:movwf
                      00267 ;;      1109 rIdx = r0x105C 
                      00268 ;;1     MOVWF   r0x100A
0001   3A01           00269         XORLW   0x01
                      00270 ;; >>> /home/sdcc-builder/build/sdcc-build/orig/sdcc/src/pic14/gen.c:3687:genCmpEq
0002   1D03           00271         BTFSS   STATUS,2
                      00272 ;; >>> /home/sdcc-builder/build/sdcc-build/orig/sdcc/src/pic14/gen.c:3690:genCmpEq
                      00273 ;; ***  popGetLabel  key=2, label offset 174
0003   2???           00274         GOTO    _00276_DS_
                      00275 ;;; /home/sdcc-builder/build/sdcc-build/orig/sdcc/src/pic14/gen.c:2316:resultRemat *{*
                      00276 ;;; /home/sdcc-builder/build/sdcc-build/orig/sdcc/src/pic14/gen.c:2316:resultRemat *{*
                      00277 ;;; /home/sdcc-builder/build/sdcc-build/orig/sdcc/src/pic14/gen.c:2086:genCall *{*
                      00278 ;; ***  genCall  2088
                      00279 ;;; /home/sdcc-builder/build/sdcc-build/orig/sdcc/src/pic14/gen.c:1801:saveRegisters *{*
                      00280 ;; ***  saveRegisters  1803
                      00281 ;; >>> /home/sdcc-builder/build/sdcc-build/orig/sdcc/src/pic14/gen.c:2175:genCall
                      00282         .line   299; "WH.c"     WH_FetchLastTemp();
0004   2???           00283         CALL    _WH_FetchLastTemp
                      00284 ;;; /home/sdcc-builder/build/sdcc-build/orig/sdcc/src/pic14/gen.c:1845:unsaveRegisters *{*
                      00285 ;; ***  unsaveRegisters  1847
                      00286 ;;; /home/sdcc-builder/build/sdcc-build/orig/sdcc/src/pic14/gen.c:2316:resultRemat *{*
                      00287 ;;; /home/sdcc-builder/build/sdcc-build/orig/sdcc/src/pic14/gen.c:2778:genGoto *{*
                      00288 ;; >>> /home/sdcc-builder/build/sdcc-build/orig/sdcc/src/pic14/gen.c:2780:genGoto
                      00289 ;; ***  popGetLabel  key=4, label offset 174
0005   2???           00290         GOTO    _00278_DS_
                      00291 ;;; /home/sdcc-builder/build/sdcc-build/orig/sdcc/src/pic14/gen.c:2316:resultRemat *{*
                      00292 ;;; /home/sdcc-builder/build/sdcc-build/orig/sdcc/src/pic14/gen.c:2760:genLabel *{*
                      00293 ;; ***  genLabel  2763
                      00294 ;;; /home/sdcc-builder/build/sdcc-build/orig/sdcc/src/pic14/gen.c:2316:resultRemat *{*
                      00295 ;;; /home/sdcc-builder/build/sdcc-build/orig/sdcc/src/pic14/gen.c:2316:resultRemat *{*
                      00296 ;;; /home/sdcc-builder/build/sdcc-build/orig/sdcc/src/pic14/gen.c:2086:genCall *{*
                      00297 ;; ***  genCall  2088
                      00298 ;;; /home/sdcc-builder/build/sdcc-build/orig/sdcc/src/pic14/gen.c:1801:saveRegisters *{*
                      00299 ;; ***  saveRegisters  1803
                      00300 ;;      2135 left AOP_LIT
                      00301 ;;; /home/sdcc-builder/build/sdcc-build/orig/sdcc/src/pic14/gen.c:1343:mov2w_op *{*
                      00302 ;; >>> /home/sdcc-builder/build/sdcc-build/orig/sdcc/src/pic14/gen.c:1361:mov2w_op
0006                  00303 _00276_DS_
                      00304         .line   303; "WH.c"     WH_Set_Temp(DEF_TEMP);
0006   303C           00305         MOVLW   0x3c
                      00306 ;;      2135 left AOP_LIT
                      00307 ;; >>> /home/sdcc-builder/build/sdcc-build/orig/sdcc/src/pic14/gen.c:2143:genCall
                      00308 ;; ***  popRegFromIdx,1042  , rIdx=0x7f
gpasm-1.4.0 #1106 (Oct  6 2014) obj\Debug\WH.   7-7-2020  18:11:58          PAGE  7


LOC    OBJECT CODE    LINE  SOURCE TEXT
  VALUE

0007   00??           00309         MOVWF   STK00
                      00310 ;;; /home/sdcc-builder/build/sdcc-build/orig/sdcc/src/pic14/gen.c:1343:mov2w_op *{*
                      00311 ;; >>> /home/sdcc-builder/build/sdcc-build/orig/sdcc/src/pic14/gen.c:1361:mov2w_op
0008   3000           00312         MOVLW   0x00
                      00313 ;; >>> /home/sdcc-builder/build/sdcc-build/orig/sdcc/src/pic14/gen.c:2175:genCall
0009   2???           00314         CALL    _WH_Set_Temp
                      00315 ;;; /home/sdcc-builder/build/sdcc-build/orig/sdcc/src/pic14/gen.c:1845:unsaveRegisters *{*
                      00316 ;; ***  unsaveRegisters  1847
                      00317 ;;; /home/sdcc-builder/build/sdcc-build/orig/sdcc/src/pic14/gen.c:2316:resultRemat *{*
                      00318 ;;; /home/sdcc-builder/build/sdcc-build/orig/sdcc/src/pic14/gen.c:2760:genLabel *{*
                      00319 ;; ***  genLabel  2763
                      00320 ;;; /home/sdcc-builder/build/sdcc-build/orig/sdcc/src/pic14/gen.c:2316:resultRemat *{*
                      00321 ;;; /home/sdcc-builder/build/sdcc-build/orig/sdcc/src/pic14/gen.c:2528:genEndFunction *{*
                      00322 ;; ***  genEndFunction  2530
000A                  00323 _00278_DS_
000A   0008           00324         RETURN  
                      00325 ; exit point of _WH_UsedTemp
                      00326 
                      00327 ;***
                      00328 ;  pBlock Stats: dbName = C
                      00329 ;***
                      00330 ;entry:  _WH_CheckFirstUse      ;Function start
                      00331 ; 2 exit points
                      00332 ;has an exit
                      00333 ;functions called:
                      00334 ;   _EEPROM_Read
                      00335 ;   _EEPROM_Write
                      00336 ;   _EEPROM_Read
                      00337 ;   _EEPROM_Write
                      00338 ;3 compiler assigned registers:
                      00339 ;   STK00
                      00340 ;   r0x1008
                      00341 ;   STK01
                      00342 ;; Starting pCode block
                      00343 ;;; /home/sdcc-builder/build/sdcc-build/orig/sdcc/src/pic14/gen.c:2316:resultRemat *{*
                      00344 ;;; /home/sdcc-builder/build/sdcc-build/orig/sdcc/src/pic14/gen.c:2760:genLabel *{*
                      00345 ;; ***  genLabel  2763
                      00346 ;;; /home/sdcc-builder/build/sdcc-build/orig/sdcc/src/pic14/gen.c:2316:resultRemat *{*
                      00347 ;;; /home/sdcc-builder/build/sdcc-build/orig/sdcc/src/pic14/gen.c:2340:genFunction *{*
                      00348 ;; ***  genFunction  2342 curr label offset=156previous max_key=6 
000B                  00349 _WH_CheckFirstUse       ;Function start
                      00350 ; 2 exit points
                      00351 ;;; /home/sdcc-builder/build/sdcc-build/orig/sdcc/src/pic14/gen.c:2316:resultRemat *{*
                      00352 ;;; /home/sdcc-builder/build/sdcc-build/orig/sdcc/src/pic14/gen.c:2316:resultRemat *{*
                      00353 ;;; /home/sdcc-builder/build/sdcc-build/orig/sdcc/src/pic14/gen.c:2086:genCall *{*
                      00354 ;; ***  genCall  2088
                      00355 ;;; /home/sdcc-builder/build/sdcc-build/orig/sdcc/src/pic14/gen.c:1801:saveRegisters *{*
                      00356 ;; ***  saveRegisters  1803
                      00357 ;;      2135 left AOP_LIT
                      00358 ;;; /home/sdcc-builder/build/sdcc-build/orig/sdcc/src/pic14/gen.c:1343:mov2w_op *{*
                      00359 ;; >>> /home/sdcc-builder/build/sdcc-build/orig/sdcc/src/pic14/gen.c:1361:mov2w_op
                      00360         .line   275; "WH.c"     tByte Temp = EEPROM_Read(Add);
000B   3010           00361         MOVLW   0x10
gpasm-1.4.0 #1106 (Oct  6 2014) obj\Debug\WH.   7-7-2020  18:11:58          PAGE  8


LOC    OBJECT CODE    LINE  SOURCE TEXT
  VALUE

                      00362 ;;      2135 left AOP_LIT
                      00363 ;; >>> /home/sdcc-builder/build/sdcc-build/orig/sdcc/src/pic14/gen.c:2143:genCall
                      00364 ;; ***  popRegFromIdx,1042  , rIdx=0x7f
000C   00??           00365         MOVWF   STK00
                      00366 ;;; /home/sdcc-builder/build/sdcc-build/orig/sdcc/src/pic14/gen.c:1343:mov2w_op *{*
                      00367 ;; >>> /home/sdcc-builder/build/sdcc-build/orig/sdcc/src/pic14/gen.c:1361:mov2w_op
000D   3000           00368         MOVLW   0x00
                      00369 ;; >>> /home/sdcc-builder/build/sdcc-build/orig/sdcc/src/pic14/gen.c:2173:genCall
000E   ???? ????      00370         PAGESEL _EEPROM_Read
                      00371 ;; >>> /home/sdcc-builder/build/sdcc-build/orig/sdcc/src/pic14/gen.c:2175:genCall
0010   2???           00372         CALL    _EEPROM_Read
                      00373 ;; >>> /home/sdcc-builder/build/sdcc-build/orig/sdcc/src/pic14/gen.c:2181:genCall
0011   ???? ????      00374         PAGESEL $
                      00375 ;;      694 register type nRegs=1
                      00376 ;;; /home/sdcc-builder/build/sdcc-build/orig/sdcc/src/pic14/gen.c:1907:assignResultValue *{*
                      00377 ;; ***  assignResultValue  1909
                      00378 ;;      line = 1911 result -=-, size=0, left AOP_REG=r0x105B, size=1, right -=-, size=0
                      00379 ;; >>> /home/sdcc-builder/build/sdcc-build/orig/sdcc/src/pic14/gen.c:1393:movwf
                      00380 ;;      1109 rIdx = r0x105B 
                      00381 ;;1     MOVWF   r0x1008
                      00382         .line   277; "WH.c"     if(Temp == True)
0013   3A01           00383         XORLW   0x01
                      00384 ;; >>> /home/sdcc-builder/build/sdcc-build/orig/sdcc/src/pic14/gen.c:3687:genCmpEq
0014   1D03           00385         BTFSS   STATUS,2
                      00386 ;; >>> /home/sdcc-builder/build/sdcc-build/orig/sdcc/src/pic14/gen.c:3690:genCmpEq
                      00387 ;; ***  popGetLabel  key=2, label offset 166
0015   2???           00388         GOTO    _00268_DS_
                      00389 ;;; /home/sdcc-builder/build/sdcc-build/orig/sdcc/src/pic14/gen.c:2316:resultRemat *{*
                      00390 ;;; /home/sdcc-builder/build/sdcc-build/orig/sdcc/src/pic14/gen.c:2316:resultRemat *{*
                      00391 ;;; /home/sdcc-builder/build/sdcc-build/orig/sdcc/src/pic14/gen.c:2683:genRet *{*
                      00392 ;; ***  genRet  2685
                      00393 ;;; /home/sdcc-builder/build/sdcc-build/orig/sdcc/src/pic14/gen.c:1343:mov2w_op *{*
                      00394 ;; >>> /home/sdcc-builder/build/sdcc-build/orig/sdcc/src/pic14/gen.c:1361:mov2w_op
                      00395         .line   279; "WH.c"     return 1;
0016   3001           00396         MOVLW   0x01
                      00397 ;; >>> /home/sdcc-builder/build/sdcc-build/orig/sdcc/src/pic14/gen.c:2709:genRet
                      00398 ;; ***  popGetLabel  key=4, label offset 166
0017   2???           00399         GOTO    _00270_DS_
                      00400 ;;; /home/sdcc-builder/build/sdcc-build/orig/sdcc/src/pic14/gen.c:2316:resultRemat *{*
                      00401 ;;; /home/sdcc-builder/build/sdcc-build/orig/sdcc/src/pic14/gen.c:2760:genLabel *{*
                      00402 ;; ***  genLabel  2763
                      00403 ;;; /home/sdcc-builder/build/sdcc-build/orig/sdcc/src/pic14/gen.c:2316:resultRemat *{*
                      00404 ;;; /home/sdcc-builder/build/sdcc-build/orig/sdcc/src/pic14/gen.c:2316:resultRemat *{*
                      00405 ;;; /home/sdcc-builder/build/sdcc-build/orig/sdcc/src/pic14/gen.c:2316:resultRemat *{*
                      00406 ;;; /home/sdcc-builder/build/sdcc-build/orig/sdcc/src/pic14/gen.c:2086:genCall *{*
                      00407 ;; ***  genCall  2088
                      00408 ;;; /home/sdcc-builder/build/sdcc-build/orig/sdcc/src/pic14/gen.c:1801:saveRegisters *{*
                      00409 ;; ***  saveRegisters  1803
                      00410 ;;      2135 left AOP_LIT
                      00411 ;;; /home/sdcc-builder/build/sdcc-build/orig/sdcc/src/pic14/gen.c:1343:mov2w_op *{*
                      00412 ;; >>> /home/sdcc-builder/build/sdcc-build/orig/sdcc/src/pic14/gen.c:1361:mov2w_op
0018                  00413 _00268_DS_
                      00414         .line   284; "WH.c"     EEPROM_Write(Add,True);
gpasm-1.4.0 #1106 (Oct  6 2014) obj\Debug\WH.   7-7-2020  18:11:58          PAGE  9


LOC    OBJECT CODE    LINE  SOURCE TEXT
  VALUE

0018   3001           00415         MOVLW   0x01
                      00416 ;;      2135 left AOP_LIT
                      00417 ;; >>> /home/sdcc-builder/build/sdcc-build/orig/sdcc/src/pic14/gen.c:2143:genCall
                      00418 ;; ***  popRegFromIdx,1042  , rIdx=0x7e
0019   00??           00419         MOVWF   STK01
                      00420 ;;; /home/sdcc-builder/build/sdcc-build/orig/sdcc/src/pic14/gen.c:1343:mov2w_op *{*
                      00421 ;; >>> /home/sdcc-builder/build/sdcc-build/orig/sdcc/src/pic14/gen.c:1361:mov2w_op
001A   3010           00422         MOVLW   0x10
                      00423 ;;      2135 left AOP_LIT
                      00424 ;; >>> /home/sdcc-builder/build/sdcc-build/orig/sdcc/src/pic14/gen.c:2143:genCall
                      00425 ;; ***  popRegFromIdx,1042  , rIdx=0x7f
001B   00??           00426         MOVWF   STK00
                      00427 ;;; /home/sdcc-builder/build/sdcc-build/orig/sdcc/src/pic14/gen.c:1343:mov2w_op *{*
                      00428 ;; >>> /home/sdcc-builder/build/sdcc-build/orig/sdcc/src/pic14/gen.c:1361:mov2w_op
001C   3000           00429         MOVLW   0x00
                      00430 ;; >>> /home/sdcc-builder/build/sdcc-build/orig/sdcc/src/pic14/gen.c:2173:genCall
001D   ???? ????      00431         PAGESEL _EEPROM_Write
                      00432 ;; >>> /home/sdcc-builder/build/sdcc-build/orig/sdcc/src/pic14/gen.c:2175:genCall
001F   2???           00433         CALL    _EEPROM_Write
                      00434 ;; >>> /home/sdcc-builder/build/sdcc-build/orig/sdcc/src/pic14/gen.c:2181:genCall
0020   ???? ????      00435         PAGESEL $
                      00436 ;;; /home/sdcc-builder/build/sdcc-build/orig/sdcc/src/pic14/gen.c:1845:unsaveRegisters *{*
                      00437 ;; ***  unsaveRegisters  1847
                      00438 ;;; /home/sdcc-builder/build/sdcc-build/orig/sdcc/src/pic14/gen.c:2316:resultRemat *{*
                      00439 ;;; /home/sdcc-builder/build/sdcc-build/orig/sdcc/src/pic14/gen.c:2683:genRet *{*
                      00440 ;; ***  genRet  2685
                      00441 ;;; /home/sdcc-builder/build/sdcc-build/orig/sdcc/src/pic14/gen.c:1343:mov2w_op *{*
                      00442 ;; >>> /home/sdcc-builder/build/sdcc-build/orig/sdcc/src/pic14/gen.c:1361:mov2w_op
                      00443         .line   285; "WH.c"     return 0;
0022   3000           00444         MOVLW   0x00
                      00445 ;;; /home/sdcc-builder/build/sdcc-build/orig/sdcc/src/pic14/gen.c:2316:resultRemat *{*
                      00446 ;;; /home/sdcc-builder/build/sdcc-build/orig/sdcc/src/pic14/gen.c:2760:genLabel *{*
                      00447 ;; ***  genLabel  2763
                      00448 ;;; /home/sdcc-builder/build/sdcc-build/orig/sdcc/src/pic14/gen.c:2316:resultRemat *{*
                      00449 ;;; /home/sdcc-builder/build/sdcc-build/orig/sdcc/src/pic14/gen.c:2528:genEndFunction *{*
                      00450 ;; ***  genEndFunction  2530
0023                  00451 _00270_DS_
0023   0008           00452         RETURN  
                      00453 ; exit point of _WH_CheckFirstUse
                      00454 ;;; /home/sdcc-builder/build/sdcc-build/orig/sdcc/src/pic14/gen.c:7426:genpic14Code *{*
                      00455 
                      00456 ;***
                      00457 ;  pBlock Stats: dbName = C
                      00458 ;***
                      00459 ;entry:  _WH_TurnON_OFF ;Function start
                      00460 ; 2 exit points
                      00461 ;has an exit
                      00462 ;functions called:
                      00463 ;   _SW_GetState
                      00464 ;   _SW_GetState
                      00465 ;1 compiler assigned register :
                      00466 ;   r0x100B
                      00467 ;; Starting pCode block
gpasm-1.4.0 #1106 (Oct  6 2014) obj\Debug\WH.   7-7-2020  18:11:58          PAGE 10


LOC    OBJECT CODE    LINE  SOURCE TEXT
  VALUE

                      00468 ;;; /home/sdcc-builder/build/sdcc-build/orig/sdcc/src/pic14/gen.c:2316:resultRemat *{*
                      00469 ;;; /home/sdcc-builder/build/sdcc-build/orig/sdcc/src/pic14/gen.c:2760:genLabel *{*
                      00470 ;; ***  genLabel  2763
                      00471 ;;; /home/sdcc-builder/build/sdcc-build/orig/sdcc/src/pic14/gen.c:2316:resultRemat *{*
                      00472 ;;; /home/sdcc-builder/build/sdcc-build/orig/sdcc/src/pic14/gen.c:2340:genFunction *{*
                      00473 ;; ***  genFunction  2342 curr label offset=93previous max_key=59 
0024                  00474 _WH_TurnON_OFF  ;Function start
                      00475 ; 2 exit points
                      00476 ;;; /home/sdcc-builder/build/sdcc-build/orig/sdcc/src/pic14/gen.c:2316:resultRemat *{*
                      00477 ;;; /home/sdcc-builder/build/sdcc-build/orig/sdcc/src/pic14/gen.c:2316:resultRemat *{*
                      00478 ;;; /home/sdcc-builder/build/sdcc-build/orig/sdcc/src/pic14/gen.c:2086:genCall *{*
                      00479 ;; ***  genCall  2088
                      00480 ;;; /home/sdcc-builder/build/sdcc-build/orig/sdcc/src/pic14/gen.c:1801:saveRegisters *{*
                      00481 ;; ***  saveRegisters  1803
                      00482 ;;      2135 left AOP_LIT
                      00483 ;;; /home/sdcc-builder/build/sdcc-build/orig/sdcc/src/pic14/gen.c:1343:mov2w_op *{*
                      00484 ;; >>> /home/sdcc-builder/build/sdcc-build/orig/sdcc/src/pic14/gen.c:1361:mov2w_op
                      00485         .line   254; "WH.c"     if(SW_GetState(SW_ON_OFF) == SW_PRE_PRESSED)
0024   3002           00486         MOVLW   0x02
                      00487 ;; >>> /home/sdcc-builder/build/sdcc-build/orig/sdcc/src/pic14/gen.c:2173:genCall
0025   ???? ????      00488         PAGESEL _SW_GetState
                      00489 ;; >>> /home/sdcc-builder/build/sdcc-build/orig/sdcc/src/pic14/gen.c:2175:genCall
0027   2???           00490         CALL    _SW_GetState
                      00491 ;; >>> /home/sdcc-builder/build/sdcc-build/orig/sdcc/src/pic14/gen.c:2181:genCall
0028   ???? ????      00492         PAGESEL $
                      00493 ;;      694 register type nRegs=1
                      00494 ;;; /home/sdcc-builder/build/sdcc-build/orig/sdcc/src/pic14/gen.c:1907:assignResultValue *{*
                      00495 ;; ***  assignResultValue  1909
                      00496 ;;      line = 1911 result -=-, size=0, left AOP_REG=r0x105A, size=1, right -=-, size=0
                      00497 ;; >>> /home/sdcc-builder/build/sdcc-build/orig/sdcc/src/pic14/gen.c:1393:movwf
                      00498 ;;      1109 rIdx = r0x105A 
                      00499 ;;1     MOVWF   r0x100B
002A   3A01           00500         XORLW   0x01
                      00501 ;; >>> /home/sdcc-builder/build/sdcc-build/orig/sdcc/src/pic14/gen.c:3687:genCmpEq
002B   1D03           00502         BTFSS   STATUS,2
                      00503 ;; >>> /home/sdcc-builder/build/sdcc-build/orig/sdcc/src/pic14/gen.c:3690:genCmpEq
                      00504 ;; ***  popGetLabel  key=6, label offset 156
002C   2???           00505         GOTO    _00262_DS_
                      00506 ;;; /home/sdcc-builder/build/sdcc-build/orig/sdcc/src/pic14/gen.c:2316:resultRemat *{*
                      00507 ;;; /home/sdcc-builder/build/sdcc-build/orig/sdcc/src/pic14/gen.c:2316:resultRemat *{*
                      00508 ;;; /home/sdcc-builder/build/sdcc-build/orig/sdcc/src/pic14/gen.c:3619:genCmpEq *{*
                      00509 ;; ***  genCmpEq  3620
                      00510 ;; ifx is non-null
                      00511 ;; ***  aopForSym 315
                      00512 ;;      327 sym->rname = _WH_State, size = 1
                      00513 ;;      line = 3631 result AOP_CRY=0x00, size=0, left AOP_DIR=_WH_State, size=1, right AOP_LIT=0x01, siz
                            e=1
                      00514 ;; ***  mov2w  1381  offset=0
                      00515 ;; >>> /home/sdcc-builder/build/sdcc-build/orig/sdcc/src/pic14/gen.c:1386:mov2w
                      00516 ;;      1009
                      00517 ;;      1028  _WH_State   offset=0
                      00518         .line   256; "WH.c"     if (WH_State == WH_ON)
002D   ???? ????      00519         BANKSEL _WH_State
gpasm-1.4.0 #1106 (Oct  6 2014) obj\Debug\WH.   7-7-2020  18:11:58          PAGE 11


LOC    OBJECT CODE    LINE  SOURCE TEXT
  VALUE

002F   08??           00520         MOVF    _WH_State,W
                      00521 ;; >>> /home/sdcc-builder/build/sdcc-build/orig/sdcc/src/pic14/gen.c:3685:genCmpEq
0030   3A01           00522         XORLW   0x01
                      00523 ;; >>> /home/sdcc-builder/build/sdcc-build/orig/sdcc/src/pic14/gen.c:3687:genCmpEq
0031   1D03           00524         BTFSS   STATUS,2
                      00525 ;; >>> /home/sdcc-builder/build/sdcc-build/orig/sdcc/src/pic14/gen.c:3690:genCmpEq
                      00526 ;; ***  popGetLabel  key=2, label offset 156
0032   2???           00527         GOTO    _00258_DS_
                      00528 ;;; /home/sdcc-builder/build/sdcc-build/orig/sdcc/src/pic14/gen.c:2316:resultRemat *{*
                      00529 ;;; /home/sdcc-builder/build/sdcc-build/orig/sdcc/src/pic14/gen.c:2316:resultRemat *{*
                      00530 ;;; /home/sdcc-builder/build/sdcc-build/orig/sdcc/src/pic14/gen.c:6927:genAssign *{*
                      00531 ;; ***  genAssign  6928
                      00532 ;; ***  aopForSym 315
                      00533 ;;      327 sym->rname = _WH_State, size = 1
                      00534 ;;      line = 6937 result AOP_DIR=_WH_State, size=1, left -=-, size=0, right AOP_LIT=0x00, size=1
                      00535 ;; ***  genAssign  7023
                      00536 ;; >>> /home/sdcc-builder/build/sdcc-build/orig/sdcc/src/pic14/gen.c:7035:genAssign
                      00537 ;;      1009
                      00538 ;;      1028  _WH_State   offset=0
                      00539         .line   258; "WH.c"     WH_State = WH_OFF;
0033   01??           00540         CLRF    _WH_State
                      00541 ;;; /home/sdcc-builder/build/sdcc-build/orig/sdcc/src/pic14/gen.c:2316:resultRemat *{*
                      00542 ;;; /home/sdcc-builder/build/sdcc-build/orig/sdcc/src/pic14/gen.c:2778:genGoto *{*
                      00543 ;; >>> /home/sdcc-builder/build/sdcc-build/orig/sdcc/src/pic14/gen.c:2780:genGoto
                      00544 ;; ***  popGetLabel  key=6, label offset 156
0034   2???           00545         GOTO    _00262_DS_
                      00546 ;;; /home/sdcc-builder/build/sdcc-build/orig/sdcc/src/pic14/gen.c:2316:resultRemat *{*
                      00547 ;;; /home/sdcc-builder/build/sdcc-build/orig/sdcc/src/pic14/gen.c:2760:genLabel *{*
                      00548 ;; ***  genLabel  2763
                      00549 ;;; /home/sdcc-builder/build/sdcc-build/orig/sdcc/src/pic14/gen.c:2316:resultRemat *{*
                      00550 ;;; /home/sdcc-builder/build/sdcc-build/orig/sdcc/src/pic14/gen.c:6927:genAssign *{*
                      00551 ;; ***  genAssign  6928
                      00552 ;; ***  aopForSym 315
                      00553 ;;      327 sym->rname = _WH_State, size = 1
                      00554 ;;      line = 6937 result AOP_DIR=_WH_State, size=1, left -=-, size=0, right AOP_LIT=0x01, size=1
                      00555 ;; ***  genAssign  7023
                      00556 ;; >>> /home/sdcc-builder/build/sdcc-build/orig/sdcc/src/pic14/gen.c:7030:genAssign
0035                  00557 _00258_DS_
                      00558         .line   262; "WH.c"     WH_State = WH_ON;
0035   3001           00559         MOVLW   0x01
                      00560 ;; >>> /home/sdcc-builder/build/sdcc-build/orig/sdcc/src/pic14/gen.c:7032:genAssign
                      00561 ;;      1009
                      00562 ;;      1028  _WH_State   offset=0
0036   ???? ????      00563         BANKSEL _WH_State
0038   00??           00564         MOVWF   _WH_State
                      00565 ;;; /home/sdcc-builder/build/sdcc-build/orig/sdcc/src/pic14/gen.c:2316:resultRemat *{*
                      00566 ;;; /home/sdcc-builder/build/sdcc-build/orig/sdcc/src/pic14/gen.c:2760:genLabel *{*
                      00567 ;; ***  genLabel  2763
                      00568 ;;; /home/sdcc-builder/build/sdcc-build/orig/sdcc/src/pic14/gen.c:2316:resultRemat *{*
                      00569 ;;; /home/sdcc-builder/build/sdcc-build/orig/sdcc/src/pic14/gen.c:2528:genEndFunction *{*
                      00570 ;; ***  genEndFunction  2530
0039                  00571 _00262_DS_
0039   0008           00572         RETURN  
gpasm-1.4.0 #1106 (Oct  6 2014) obj\Debug\WH.   7-7-2020  18:11:58          PAGE 12


LOC    OBJECT CODE    LINE  SOURCE TEXT
  VALUE

                      00573 ; exit point of _WH_TurnON_OFF
                      00574 ;;; /home/sdcc-builder/build/sdcc-build/orig/sdcc/src/pic14/gen.c:7426:genpic14Code *{*
                      00575 
                      00576 ;***
                      00577 ;  pBlock Stats: dbName = C
                      00578 ;***
                      00579 ;entry:  _WH_CheckChange        ;Function start
                      00580 ; 2 exit points
                      00581 ;has an exit
                      00582 ;functions called:
                      00583 ;   _WH_GetState
                      00584 ;   _SW_GetState
                      00585 ;   _SW_GetState
                      00586 ;   _SW_GetState
                      00587 ;   _SW_GetState
                      00588 ;   _WH_GetState
                      00589 ;   _SW_GetState
                      00590 ;   _SW_GetState
                      00591 ;   _SW_GetState
                      00592 ;   _SW_GetState
                      00593 ;2 compiler assigned registers:
                      00594 ;   r0x100C
                      00595 ;   r0x100D
                      00596 ;; Starting pCode block
                      00597 ;;; /home/sdcc-builder/build/sdcc-build/orig/sdcc/src/pic14/gen.c:2316:resultRemat *{*
                      00598 ;;; /home/sdcc-builder/build/sdcc-build/orig/sdcc/src/pic14/gen.c:2760:genLabel *{*
                      00599 ;; ***  genLabel  2763
                      00600 ;;; /home/sdcc-builder/build/sdcc-build/orig/sdcc/src/pic14/gen.c:2316:resultRemat *{*
                      00601 ;;; /home/sdcc-builder/build/sdcc-build/orig/sdcc/src/pic14/gen.c:2340:genFunction *{*
                      00602 ;; ***  genFunction  2342 curr label offset=51previous max_key=38 
003A                  00603 _WH_CheckChange ;Function start
                      00604 ; 2 exit points
                      00605 ;;; /home/sdcc-builder/build/sdcc-build/orig/sdcc/src/pic14/gen.c:2316:resultRemat *{*
                      00606 ;;; /home/sdcc-builder/build/sdcc-build/orig/sdcc/src/pic14/gen.c:6927:genAssign *{*
                      00607 ;; ***  genAssign  6928
                      00608 ;;      694 register type nRegs=1
                      00609 ;;      line = 6937 result AOP_REG=r0x1058, size=1, left -=-, size=0, right AOP_LIT=0x00, size=1
                      00610 ;; ***  genAssign  7023
                      00611 ;; >>> /home/sdcc-builder/build/sdcc-build/orig/sdcc/src/pic14/gen.c:7035:genAssign
                      00612 ;;      1109 rIdx = r0x1058 
                      00613         .line   193; "WH.c"     tByte Setting_ClickedFlag = 0;
003A   ???? ????      00614         BANKSEL r0x100C
003C   01??           00615         CLRF    r0x100C
                      00616 ;;; /home/sdcc-builder/build/sdcc-build/orig/sdcc/src/pic14/gen.c:2316:resultRemat *{*
                      00617 ;;; /home/sdcc-builder/build/sdcc-build/orig/sdcc/src/pic14/gen.c:2086:genCall *{*
                      00618 ;; ***  genCall  2088
                      00619 ;;; /home/sdcc-builder/build/sdcc-build/orig/sdcc/src/pic14/gen.c:1801:saveRegisters *{*
                      00620 ;; ***  saveRegisters  1803
                      00621 ;; >>> /home/sdcc-builder/build/sdcc-build/orig/sdcc/src/pic14/gen.c:2175:genCall
                      00622         .line   195; "WH.c"     if(WH_GetState() == WH_ON)
003D   2???           00623         CALL    _WH_GetState
                      00624 ;;      694 register type nRegs=1
                      00625 ;;; /home/sdcc-builder/build/sdcc-build/orig/sdcc/src/pic14/gen.c:1907:assignResultValue *{*
gpasm-1.4.0 #1106 (Oct  6 2014) obj\Debug\WH.   7-7-2020  18:11:58          PAGE 13


LOC    OBJECT CODE    LINE  SOURCE TEXT
  VALUE

                      00626 ;; ***  assignResultValue  1909
                      00627 ;;      line = 1911 result -=-, size=0, left AOP_REG=r0x1059, size=1, right -=-, size=0
                      00628 ;; >>> /home/sdcc-builder/build/sdcc-build/orig/sdcc/src/pic14/gen.c:1393:movwf
                      00629 ;;      1109 rIdx = r0x1059 
003E   ???? ????      00630         BANKSEL r0x100D
0040   00??           00631         MOVWF   r0x100D
0041   3A01           00632         XORLW   0x01
                      00633 ;; >>> /home/sdcc-builder/build/sdcc-build/orig/sdcc/src/pic14/gen.c:3687:genCmpEq
0042   1D03           00634         BTFSS   STATUS,2
                      00635 ;; >>> /home/sdcc-builder/build/sdcc-build/orig/sdcc/src/pic14/gen.c:3690:genCmpEq
                      00636 ;; ***  popGetLabel  key=21, label offset 93
0043   2???           00637         GOTO    _00214_DS_
                      00638 ;;; /home/sdcc-builder/build/sdcc-build/orig/sdcc/src/pic14/gen.c:2316:resultRemat *{*
                      00639 ;;; /home/sdcc-builder/build/sdcc-build/orig/sdcc/src/pic14/gen.c:2316:resultRemat *{*
                      00640 ;;; /home/sdcc-builder/build/sdcc-build/orig/sdcc/src/pic14/gen.c:6759:genIfx *{*
                      00641 ;; ***  genIfx  6760
                      00642 ;; ***  aopForSym 315
                      00643 ;;      327 sym->rname = _FirstClick, size = 1
                      00644 ;; ***  pic14_toBoolean  1515
                      00645 ;; >>> /home/sdcc-builder/build/sdcc-build/orig/sdcc/src/pic14/gen.c:1522:pic14_toBoolean
                      00646         .line   197; "WH.c"     if(FirstClick == 0){
0044   ???? ????      00647         BANKSEL _FirstClick
0046   08??           00648         MOVF    _FirstClick,W
0047   1D03           00649         BTFSS   STATUS,2
                      00650 ;; >>> /home/sdcc-builder/build/sdcc-build/orig/sdcc/src/pic14/gen.c:6809:genIfx
                      00651 ;; ***  popGetLabel  key=5, label offset 93
0048   2???           00652         GOTO    _00198_DS_
                      00653 ;;; /home/sdcc-builder/build/sdcc-build/orig/sdcc/src/pic14/gen.c:2316:resultRemat *{*
                      00654 ;;; /home/sdcc-builder/build/sdcc-build/orig/sdcc/src/pic14/gen.c:2316:resultRemat *{*
                      00655 ;;; /home/sdcc-builder/build/sdcc-build/orig/sdcc/src/pic14/gen.c:2086:genCall *{*
                      00656 ;; ***  genCall  2088
                      00657 ;;; /home/sdcc-builder/build/sdcc-build/orig/sdcc/src/pic14/gen.c:1801:saveRegisters *{*
                      00658 ;; ***  saveRegisters  1803
                      00659 ;;      2135 left AOP_LIT
                      00660 ;;; /home/sdcc-builder/build/sdcc-build/orig/sdcc/src/pic14/gen.c:1343:mov2w_op *{*
                      00661 ;; >>> /home/sdcc-builder/build/sdcc-build/orig/sdcc/src/pic14/gen.c:1361:mov2w_op
                      00662         .line   198; "WH.c"     if((SW_GetState(SW_PLUS) == SW_PRE_PRESSED)|| (SW_GetState(SW_MINUS) == 
                            SW_PRE_PRESSED))
0049   3000           00663         MOVLW   0x00
                      00664 ;; >>> /home/sdcc-builder/build/sdcc-build/orig/sdcc/src/pic14/gen.c:2173:genCall
004A   ???? ????      00665         PAGESEL _SW_GetState
                      00666 ;; >>> /home/sdcc-builder/build/sdcc-build/orig/sdcc/src/pic14/gen.c:2175:genCall
004C   2???           00667         CALL    _SW_GetState
                      00668 ;; >>> /home/sdcc-builder/build/sdcc-build/orig/sdcc/src/pic14/gen.c:2181:genCall
004D   ???? ????      00669         PAGESEL $
                      00670 ;;      694 register type nRegs=1
                      00671 ;;; /home/sdcc-builder/build/sdcc-build/orig/sdcc/src/pic14/gen.c:1907:assignResultValue *{*
                      00672 ;; ***  assignResultValue  1909
                      00673 ;;      line = 1911 result -=-, size=0, left AOP_REG=r0x1059, size=1, right -=-, size=0
                      00674 ;; >>> /home/sdcc-builder/build/sdcc-build/orig/sdcc/src/pic14/gen.c:1393:movwf
                      00675 ;;      1109 rIdx = r0x1059 
004F   ???? ????      00676         BANKSEL r0x100D
0051   00??           00677         MOVWF   r0x100D
gpasm-1.4.0 #1106 (Oct  6 2014) obj\Debug\WH.   7-7-2020  18:11:58          PAGE 14


LOC    OBJECT CODE    LINE  SOURCE TEXT
  VALUE

0052   3A01           00678         XORLW   0x01
0053   1903           00679         BTFSC   STATUS,2
0054   2???           00680         GOTO    _00194_DS_
0055   3001           00681         MOVLW   0x01
0056   ???? ????      00682         PAGESEL _SW_GetState
                      00683 ;; >>> /home/sdcc-builder/build/sdcc-build/orig/sdcc/src/pic14/gen.c:2175:genCall
0058   2???           00684         CALL    _SW_GetState
                      00685 ;; >>> /home/sdcc-builder/build/sdcc-build/orig/sdcc/src/pic14/gen.c:2181:genCall
0059   ???? ????      00686         PAGESEL $
                      00687 ;;      694 register type nRegs=1
                      00688 ;;; /home/sdcc-builder/build/sdcc-build/orig/sdcc/src/pic14/gen.c:1907:assignResultValue *{*
                      00689 ;; ***  assignResultValue  1909
                      00690 ;;      line = 1911 result -=-, size=0, left AOP_REG=r0x1059, size=1, right -=-, size=0
                      00691 ;; >>> /home/sdcc-builder/build/sdcc-build/orig/sdcc/src/pic14/gen.c:1393:movwf
                      00692 ;;      1109 rIdx = r0x1059 
005B   ???? ????      00693         BANKSEL r0x100D
005D   00??           00694         MOVWF   r0x100D
005E   3A01           00695         XORLW   0x01
                      00696 ;; >>> /home/sdcc-builder/build/sdcc-build/orig/sdcc/src/pic14/gen.c:3687:genCmpEq
005F   1D03           00697         BTFSS   STATUS,2
                      00698 ;; >>> /home/sdcc-builder/build/sdcc-build/orig/sdcc/src/pic14/gen.c:3690:genCmpEq
                      00699 ;; ***  popGetLabel  key=5, label offset 93
0060   2???           00700         GOTO    _00198_DS_
                      00701 ;;; /home/sdcc-builder/build/sdcc-build/orig/sdcc/src/pic14/gen.c:2316:resultRemat *{*
                      00702 ;;; /home/sdcc-builder/build/sdcc-build/orig/sdcc/src/pic14/gen.c:2316:resultRemat *{*
                      00703 ;;; /home/sdcc-builder/build/sdcc-build/orig/sdcc/src/pic14/gen.c:2760:genLabel *{*
                      00704 ;; ***  genLabel  2763
                      00705 ;;; /home/sdcc-builder/build/sdcc-build/orig/sdcc/src/pic14/gen.c:2316:resultRemat *{*
                      00706 ;;; /home/sdcc-builder/build/sdcc-build/orig/sdcc/src/pic14/gen.c:6927:genAssign *{*
                      00707 ;; ***  genAssign  6928
                      00708 ;; ***  aopForSym 315
                      00709 ;;      327 sym->rname = _FirstClick, size = 1
                      00710 ;;      line = 6937 result AOP_DIR=_FirstClick, size=1, left -=-, size=0, right AOP_LIT=0x01, size=1
                      00711 ;; ***  genAssign  7023
                      00712 ;; >>> /home/sdcc-builder/build/sdcc-build/orig/sdcc/src/pic14/gen.c:7030:genAssign
0061                  00713 _00194_DS_
                      00714         .line   200; "WH.c"     FirstClick = 1;
0061   3001           00715         MOVLW   0x01
                      00716 ;; >>> /home/sdcc-builder/build/sdcc-build/orig/sdcc/src/pic14/gen.c:7032:genAssign
                      00717 ;;      1009
                      00718 ;;      1028  _FirstClick   offset=0
0062   ???? ????      00719         BANKSEL _FirstClick
0064   00??           00720         MOVWF   _FirstClick
                      00721 ;;; /home/sdcc-builder/build/sdcc-build/orig/sdcc/src/pic14/gen.c:2316:resultRemat *{*
                      00722 ;;; /home/sdcc-builder/build/sdcc-build/orig/sdcc/src/pic14/gen.c:6927:genAssign *{*
                      00723 ;; ***  genAssign  6928
                      00724 ;; ***  aopForSym 315
                      00725 ;;      327 sym->rname = _Settings, size = 1
                      00726 ;;      line = 6937 result AOP_DIR=_Settings, size=1, left -=-, size=0, right AOP_LIT=0x01, size=1
                      00727 ;; ***  genAssign  7023
                      00728 ;; >>> /home/sdcc-builder/build/sdcc-build/orig/sdcc/src/pic14/gen.c:7030:genAssign
                      00729         .line   202; "WH.c"     Settings = WH_SETTING;
0065   3001           00730         MOVLW   0x01
gpasm-1.4.0 #1106 (Oct  6 2014) obj\Debug\WH.   7-7-2020  18:11:58          PAGE 15


LOC    OBJECT CODE    LINE  SOURCE TEXT
  VALUE

                      00731 ;; >>> /home/sdcc-builder/build/sdcc-build/orig/sdcc/src/pic14/gen.c:7032:genAssign
                      00732 ;;      1009
                      00733 ;;      1028  _Settings   offset=0
0066   ???? ????      00734         BANKSEL _Settings
0068   00??           00735         MOVWF   _Settings
                      00736 ;;; /home/sdcc-builder/build/sdcc-build/orig/sdcc/src/pic14/gen.c:2316:resultRemat *{*
                      00737 ;;; /home/sdcc-builder/build/sdcc-build/orig/sdcc/src/pic14/gen.c:6927:genAssign *{*
                      00738 ;; ***  genAssign  6928
                      00739 ;; ***  aopForSym 315
                      00740 ;;      327 sym->rname = _WH_Setting_Counter, size = 2
                      00741 ;;      line = 6937 result AOP_DIR=_WH_Setting_Counter, size=2, left -=-, size=0, right AOP_LIT=0x00, si
                            ze=2
                      00742 ;; ***  genAssign  7023
                      00743 ;; >>> /home/sdcc-builder/build/sdcc-build/orig/sdcc/src/pic14/gen.c:7035:genAssign
                      00744 ;;      1009
                      00745 ;;      1028  _WH_Setting_Counter   offset=0
                      00746         .line   204; "WH.c"     WH_Setting_Counter = 0;
0069   ???? ????      00747         BANKSEL _WH_Setting_Counter
006B   01??           00748         CLRF    _WH_Setting_Counter
                      00749 ;; ***  genAssign  7023
                      00750 ;; >>> /home/sdcc-builder/build/sdcc-build/orig/sdcc/src/pic14/gen.c:7035:genAssign
                      00751 ;;      1009
                      00752 ;;      1028  _WH_Setting_Counter   offset=1
006C   01??           00753         CLRF    (_WH_Setting_Counter + 1)
                      00754 ;;; /home/sdcc-builder/build/sdcc-build/orig/sdcc/src/pic14/gen.c:2316:resultRemat *{*
                      00755 ;;; /home/sdcc-builder/build/sdcc-build/orig/sdcc/src/pic14/gen.c:2683:genRet *{*
                      00756 ;; ***  genRet  2685
                      00757 ;; >>> /home/sdcc-builder/build/sdcc-build/orig/sdcc/src/pic14/gen.c:2709:genRet
                      00758 ;; ***  popGetLabel  key=24, label offset 93
                      00759         .line   205; "WH.c"     return;
006D   2???           00760         GOTO    _00217_DS_
                      00761 ;;; /home/sdcc-builder/build/sdcc-build/orig/sdcc/src/pic14/gen.c:2316:resultRemat *{*
                      00762 ;;; /home/sdcc-builder/build/sdcc-build/orig/sdcc/src/pic14/gen.c:2760:genLabel *{*
                      00763 ;; ***  genLabel  2763
                      00764 ;;; /home/sdcc-builder/build/sdcc-build/orig/sdcc/src/pic14/gen.c:2316:resultRemat *{*
                      00765 ;;; /home/sdcc-builder/build/sdcc-build/orig/sdcc/src/pic14/gen.c:3619:genCmpEq *{*
                      00766 ;; ***  genCmpEq  3620
                      00767 ;; ifx is non-null
                      00768 ;; ***  aopForSym 315
                      00769 ;;      327 sym->rname = _FirstClick, size = 1
                      00770 ;;      line = 3631 result AOP_CRY=0x00, size=0, left AOP_DIR=_FirstClick, size=1, right AOP_LIT=0x01, s
                            ize=1
                      00771 ;; ***  mov2w  1381  offset=0
                      00772 ;; >>> /home/sdcc-builder/build/sdcc-build/orig/sdcc/src/pic14/gen.c:1386:mov2w
                      00773 ;;      1009
                      00774 ;;      1028  _FirstClick   offset=0
006E                  00775 _00198_DS_
                      00776         .line   208; "WH.c"     if(FirstClick == 1){
006E   ???? ????      00777         BANKSEL _FirstClick
0070   08??           00778         MOVF    _FirstClick,W
                      00779 ;; >>> /home/sdcc-builder/build/sdcc-build/orig/sdcc/src/pic14/gen.c:3685:genCmpEq
0071   3A01           00780         XORLW   0x01
                      00781 ;; >>> /home/sdcc-builder/build/sdcc-build/orig/sdcc/src/pic14/gen.c:3687:genCmpEq
gpasm-1.4.0 #1106 (Oct  6 2014) obj\Debug\WH.   7-7-2020  18:11:58          PAGE 16


LOC    OBJECT CODE    LINE  SOURCE TEXT
  VALUE

0072   1D03           00782         BTFSS   STATUS,2
                      00783 ;; >>> /home/sdcc-builder/build/sdcc-build/orig/sdcc/src/pic14/gen.c:3690:genCmpEq
                      00784 ;; ***  popGetLabel  key=21, label offset 93
0073   2???           00785         GOTO    _00214_DS_
                      00786 ;;; /home/sdcc-builder/build/sdcc-build/orig/sdcc/src/pic14/gen.c:2316:resultRemat *{*
                      00787 ;;; /home/sdcc-builder/build/sdcc-build/orig/sdcc/src/pic14/gen.c:2316:resultRemat *{*
                      00788 ;;; /home/sdcc-builder/build/sdcc-build/orig/sdcc/src/pic14/gen.c:2316:resultRemat *{*
                      00789 ;;; /home/sdcc-builder/build/sdcc-build/orig/sdcc/src/pic14/gen.c:2086:genCall *{*
                      00790 ;; ***  genCall  2088
                      00791 ;;; /home/sdcc-builder/build/sdcc-build/orig/sdcc/src/pic14/gen.c:1801:saveRegisters *{*
                      00792 ;; ***  saveRegisters  1803
                      00793 ;;      2135 left AOP_LIT
                      00794 ;;; /home/sdcc-builder/build/sdcc-build/orig/sdcc/src/pic14/gen.c:1343:mov2w_op *{*
                      00795 ;; >>> /home/sdcc-builder/build/sdcc-build/orig/sdcc/src/pic14/gen.c:1361:mov2w_op
                      00796         .line   209; "WH.c"     if(SW_GetState(SW_PLUS) == SW_PRE_PRESSED)
0074   3000           00797         MOVLW   0x00
                      00798 ;; >>> /home/sdcc-builder/build/sdcc-build/orig/sdcc/src/pic14/gen.c:2173:genCall
0075   ???? ????      00799         PAGESEL _SW_GetState
                      00800 ;; >>> /home/sdcc-builder/build/sdcc-build/orig/sdcc/src/pic14/gen.c:2175:genCall
0077   2???           00801         CALL    _SW_GetState
                      00802 ;; >>> /home/sdcc-builder/build/sdcc-build/orig/sdcc/src/pic14/gen.c:2181:genCall
0078   ???? ????      00803         PAGESEL $
                      00804 ;;      694 register type nRegs=1
                      00805 ;;; /home/sdcc-builder/build/sdcc-build/orig/sdcc/src/pic14/gen.c:1907:assignResultValue *{*
                      00806 ;; ***  assignResultValue  1909
                      00807 ;;      line = 1911 result -=-, size=0, left AOP_REG=r0x1059, size=1, right -=-, size=0
                      00808 ;; >>> /home/sdcc-builder/build/sdcc-build/orig/sdcc/src/pic14/gen.c:1393:movwf
                      00809 ;;      1109 rIdx = r0x1059 
007A   ???? ????      00810         BANKSEL r0x100D
007C   00??           00811         MOVWF   r0x100D
007D   3A01           00812         XORLW   0x01
                      00813 ;; >>> /home/sdcc-builder/build/sdcc-build/orig/sdcc/src/pic14/gen.c:3687:genCmpEq
007E   1D03           00814         BTFSS   STATUS,2
                      00815 ;; >>> /home/sdcc-builder/build/sdcc-build/orig/sdcc/src/pic14/gen.c:3690:genCmpEq
                      00816 ;; ***  popGetLabel  key=11, label offset 93
007F   2???           00817         GOTO    _00204_DS_
                      00818 ;;; /home/sdcc-builder/build/sdcc-build/orig/sdcc/src/pic14/gen.c:2316:resultRemat *{*
                      00819 ;;; /home/sdcc-builder/build/sdcc-build/orig/sdcc/src/pic14/gen.c:2316:resultRemat *{*
                      00820 ;;; /home/sdcc-builder/build/sdcc-build/orig/sdcc/src/pic14/gen.c:6927:genAssign *{*
                      00821 ;; ***  genAssign  6928
                      00822 ;;      694 register type nRegs=1
                      00823 ;;      line = 6937 result AOP_REG=r0x1058, size=1, left -=-, size=0, right AOP_LIT=0x01, size=1
                      00824 ;; ***  genAssign  7023
                      00825 ;; >>> /home/sdcc-builder/build/sdcc-build/orig/sdcc/src/pic14/gen.c:7030:genAssign
                      00826         .line   212; "WH.c"     Setting_ClickedFlag = 1;
0080   3001           00827         MOVLW   0x01
                      00828 ;; >>> /home/sdcc-builder/build/sdcc-build/orig/sdcc/src/pic14/gen.c:7032:genAssign
                      00829 ;;      1109 rIdx = r0x1058 
0081   00??           00830         MOVWF   r0x100C
                      00831 ;;; /home/sdcc-builder/build/sdcc-build/orig/sdcc/src/pic14/gen.c:2316:resultRemat *{*
                      00832 ;;; /home/sdcc-builder/build/sdcc-build/orig/sdcc/src/pic14/gen.c:3547:genCmpGt *{*
                      00833 ;; ***  genCmpGt  3548
                      00834 ;; ***  aopForSym 315
gpasm-1.4.0 #1106 (Oct  6 2014) obj\Debug\WH.   7-7-2020  18:11:58          PAGE 17


LOC    OBJECT CODE    LINE  SOURCE TEXT
  VALUE

                      00835 ;;      327 sym->rname = _Current_Temp, size = 1
                      00836 ;;; /home/sdcc-builder/build/sdcc-build/orig/sdcc/src/pic14/gen.c:3294:genCmp *{*
                      00837 ;;swapping arguments (AOP_TYPEs 1/3)
                      00838 ;;unsigned compare: left >= lit(0x4C=76), size=1
                      00839 ;; >>> /home/sdcc-builder/build/sdcc-build/orig/sdcc/src/pic14/gen.c:3265:pic14_mov2w_regOrLit
                      00840         .line   213; "WH.c"     if (Current_Temp <= MAX_TEMP)
0082   304C           00841         MOVLW   0x4c
                      00842 ;; >>> /home/sdcc-builder/build/sdcc-build/orig/sdcc/src/pic14/gen.c:3432:genCmp
                      00843 ;;      1009
                      00844 ;;      1028  _Current_Temp   offset=0
0083   ???? ????      00845         BANKSEL _Current_Temp
0085   02??           00846         SUBWF   _Current_Temp,W
                      00847 ;;; /home/sdcc-builder/build/sdcc-build/orig/sdcc/src/pic14/gen.c:3237:genSkipc *{*
                      00848 ;; >>> /home/sdcc-builder/build/sdcc-build/orig/sdcc/src/pic14/gen.c:3242:genSkipc
0086   1803           00849         BTFSC   STATUS,0
                      00850 ;; >>> /home/sdcc-builder/build/sdcc-build/orig/sdcc/src/pic14/gen.c:3246:genSkipc
                      00851 ;; ***  popGetLabel  key=11, label offset 93
0087   2???           00852         GOTO    _00204_DS_
                      00853 ;;genSkipc:3247: created from rifx:027A5DF4
                      00854 ;;; /home/sdcc-builder/build/sdcc-build/orig/sdcc/src/pic14/gen.c:2316:resultRemat *{*
                      00855 ;;; /home/sdcc-builder/build/sdcc-build/orig/sdcc/src/pic14/gen.c:2316:resultRemat *{*
                      00856 ;; ***  genPlus  611
                      00857 ;;; /home/sdcc-builder/build/sdcc-build/orig/sdcc/src/pic14/genarith.c:612:genPlus *{*
                      00858 ;; ***  aopForSym 315
                      00859 ;;      327 sym->rname = _Current_Temp, size = 1
                      00860 ;;      575
                      00861 ;;      line = 618 result AOP_DIR=_Current_Temp, size=1, left AOP_DIR=_Current_Temp, size=1, right AOP_L
                            IT=0x05, size=1
                      00862 ;;; /home/sdcc-builder/build/sdcc-build/orig/sdcc/src/pic14/genarith.c:142:genPlusIncr *{*
                      00863 ;; ***  genPlusIncr  144
                      00864 ;;      result AOP_DIR, left AOP_DIR, right AOP_LIT
                      00865 ;;      genPlusIncr  156
                      00866 ;;      adding lit to something. size 1
                      00867 ;;; /home/sdcc-builder/build/sdcc-build/orig/sdcc/src/pic14/genarith.c:269:genAddLit *{*
                      00868 ;; ***  genAddLit  270
                      00869 ;;; /home/sdcc-builder/build/sdcc-build/orig/sdcc/src/pic14/genarith.c:233:genAddLit2byte *{*
                      00870 ;; >>> /home/sdcc-builder/build/sdcc-build/orig/sdcc/src/pic14/genarith.c:245:genAddLit2byte
                      00871         .line   215; "WH.c"     Current_Temp += TEMP_CHANGE_RATE;
0088   3005           00872         MOVLW   0x05
                      00873 ;; >>> /home/sdcc-builder/build/sdcc-build/orig/sdcc/src/pic14/genarith.c:246:genAddLit2byte
                      00874 ;;      1009
                      00875 ;;      1028  _Current_Temp   offset=0
0089   07??           00876         ADDWF   _Current_Temp,F
                      00877 ;; ***  addSign  861
                      00878 ;;; /home/sdcc-builder/build/sdcc-build/orig/sdcc/src/pic14/genarith.c:862:addSign *{*
                      00879 ;;; /home/sdcc-builder/build/sdcc-build/orig/sdcc/src/pic14/gen.c:2316:resultRemat *{*
                      00880 ;;; /home/sdcc-builder/build/sdcc-build/orig/sdcc/src/pic14/gen.c:3547:genCmpGt *{*
                      00881 ;; ***  genCmpGt  3548
                      00882 ;; ***  aopForSym 315
                      00883 ;;      327 sym->rname = _Current_Temp, size = 1
                      00884 ;;; /home/sdcc-builder/build/sdcc-build/orig/sdcc/src/pic14/gen.c:3294:genCmp *{*
                      00885 ;;swapping arguments (AOP_TYPEs 1/3)
                      00886 ;;unsigned compare: left >= lit(0x4C=76), size=1
gpasm-1.4.0 #1106 (Oct  6 2014) obj\Debug\WH.   7-7-2020  18:11:58          PAGE 18


LOC    OBJECT CODE    LINE  SOURCE TEXT
  VALUE

                      00887 ;; >>> /home/sdcc-builder/build/sdcc-build/orig/sdcc/src/pic14/gen.c:3265:pic14_mov2w_regOrLit
                      00888         .line   217; "WH.c"     if(Current_Temp > MAX_TEMP)
008A   304C           00889         MOVLW   0x4c
                      00890 ;; >>> /home/sdcc-builder/build/sdcc-build/orig/sdcc/src/pic14/gen.c:3432:genCmp
                      00891 ;;      1009
                      00892 ;;      1028  _Current_Temp   offset=0
008B   02??           00893         SUBWF   _Current_Temp,W
                      00894 ;;; /home/sdcc-builder/build/sdcc-build/orig/sdcc/src/pic14/gen.c:3237:genSkipc *{*
                      00895 ;; >>> /home/sdcc-builder/build/sdcc-build/orig/sdcc/src/pic14/gen.c:3244:genSkipc
008C   1C03           00896         BTFSS   STATUS,0
                      00897 ;; >>> /home/sdcc-builder/build/sdcc-build/orig/sdcc/src/pic14/gen.c:3246:genSkipc
                      00898 ;; ***  popGetLabel  key=11, label offset 93
008D   2???           00899         GOTO    _00204_DS_
                      00900 ;;genSkipc:3247: created from rifx:027A5DF4
                      00901 ;;; /home/sdcc-builder/build/sdcc-build/orig/sdcc/src/pic14/gen.c:2316:resultRemat *{*
                      00902 ;;; /home/sdcc-builder/build/sdcc-build/orig/sdcc/src/pic14/gen.c:2316:resultRemat *{*
                      00903 ;;; /home/sdcc-builder/build/sdcc-build/orig/sdcc/src/pic14/gen.c:6927:genAssign *{*
                      00904 ;; ***  genAssign  6928
                      00905 ;; ***  aopForSym 315
                      00906 ;;      327 sym->rname = _Current_Temp, size = 1
                      00907 ;;      line = 6937 result AOP_DIR=_Current_Temp, size=1, left -=-, size=0, right AOP_LIT=0x4b, size=1
                      00908 ;; ***  genAssign  7023
                      00909 ;; >>> /home/sdcc-builder/build/sdcc-build/orig/sdcc/src/pic14/gen.c:7030:genAssign
                      00910         .line   219; "WH.c"     Current_Temp = MAX_TEMP;
008E   304B           00911         MOVLW   0x4b
                      00912 ;; >>> /home/sdcc-builder/build/sdcc-build/orig/sdcc/src/pic14/gen.c:7032:genAssign
                      00913 ;;      1009
                      00914 ;;      1028  _Current_Temp   offset=0
008F   00??           00915         MOVWF   _Current_Temp
                      00916 ;;; /home/sdcc-builder/build/sdcc-build/orig/sdcc/src/pic14/gen.c:2316:resultRemat *{*
                      00917 ;;; /home/sdcc-builder/build/sdcc-build/orig/sdcc/src/pic14/gen.c:2760:genLabel *{*
                      00918 ;; ***  genLabel  2763
                      00919 ;;; /home/sdcc-builder/build/sdcc-build/orig/sdcc/src/pic14/gen.c:2316:resultRemat *{*
                      00920 ;;; /home/sdcc-builder/build/sdcc-build/orig/sdcc/src/pic14/gen.c:2316:resultRemat *{*
                      00921 ;;; /home/sdcc-builder/build/sdcc-build/orig/sdcc/src/pic14/gen.c:2086:genCall *{*
                      00922 ;; ***  genCall  2088
                      00923 ;;; /home/sdcc-builder/build/sdcc-build/orig/sdcc/src/pic14/gen.c:1801:saveRegisters *{*
                      00924 ;; ***  saveRegisters  1803
                      00925 ;;      2135 left AOP_LIT
                      00926 ;;; /home/sdcc-builder/build/sdcc-build/orig/sdcc/src/pic14/gen.c:1343:mov2w_op *{*
                      00927 ;; >>> /home/sdcc-builder/build/sdcc-build/orig/sdcc/src/pic14/gen.c:1361:mov2w_op
0090                  00928 _00204_DS_
                      00929         .line   224; "WH.c"     if(SW_GetState(SW_MINUS) == SW_PRE_PRESSED)
0090   3001           00930         MOVLW   0x01
                      00931 ;; >>> /home/sdcc-builder/build/sdcc-build/orig/sdcc/src/pic14/gen.c:2173:genCall
0091   ???? ????      00932         PAGESEL _SW_GetState
                      00933 ;; >>> /home/sdcc-builder/build/sdcc-build/orig/sdcc/src/pic14/gen.c:2175:genCall
0093   2???           00934         CALL    _SW_GetState
                      00935 ;; >>> /home/sdcc-builder/build/sdcc-build/orig/sdcc/src/pic14/gen.c:2181:genCall
0094   ???? ????      00936         PAGESEL $
                      00937 ;;      694 register type nRegs=1
                      00938 ;;; /home/sdcc-builder/build/sdcc-build/orig/sdcc/src/pic14/gen.c:1907:assignResultValue *{*
                      00939 ;; ***  assignResultValue  1909
gpasm-1.4.0 #1106 (Oct  6 2014) obj\Debug\WH.   7-7-2020  18:11:58          PAGE 19


LOC    OBJECT CODE    LINE  SOURCE TEXT
  VALUE

                      00940 ;;      line = 1911 result -=-, size=0, left AOP_REG=r0x1059, size=1, right -=-, size=0
                      00941 ;; >>> /home/sdcc-builder/build/sdcc-build/orig/sdcc/src/pic14/gen.c:1393:movwf
                      00942 ;;      1109 rIdx = r0x1059 
0096   ???? ????      00943         BANKSEL r0x100D
0098   00??           00944         MOVWF   r0x100D
0099   3A01           00945         XORLW   0x01
                      00946 ;; >>> /home/sdcc-builder/build/sdcc-build/orig/sdcc/src/pic14/gen.c:3687:genCmpEq
009A   1D03           00947         BTFSS   STATUS,2
                      00948 ;; >>> /home/sdcc-builder/build/sdcc-build/orig/sdcc/src/pic14/gen.c:3690:genCmpEq
                      00949 ;; ***  popGetLabel  key=21, label offset 93
009B   2???           00950         GOTO    _00214_DS_
                      00951 ;;; /home/sdcc-builder/build/sdcc-build/orig/sdcc/src/pic14/gen.c:2316:resultRemat *{*
                      00952 ;;; /home/sdcc-builder/build/sdcc-build/orig/sdcc/src/pic14/gen.c:2316:resultRemat *{*
                      00953 ;;; /home/sdcc-builder/build/sdcc-build/orig/sdcc/src/pic14/gen.c:6927:genAssign *{*
                      00954 ;; ***  genAssign  6928
                      00955 ;;      694 register type nRegs=1
                      00956 ;;      line = 6937 result AOP_REG=r0x1058, size=1, left -=-, size=0, right AOP_LIT=0x01, size=1
                      00957 ;; ***  genAssign  7023
                      00958 ;; >>> /home/sdcc-builder/build/sdcc-build/orig/sdcc/src/pic14/gen.c:7030:genAssign
                      00959         .line   227; "WH.c"     Setting_ClickedFlag = 1;
009C   3001           00960         MOVLW   0x01
                      00961 ;; >>> /home/sdcc-builder/build/sdcc-build/orig/sdcc/src/pic14/gen.c:7032:genAssign
                      00962 ;;      1109 rIdx = r0x1058 
009D   00??           00963         MOVWF   r0x100C
                      00964 ;;; /home/sdcc-builder/build/sdcc-build/orig/sdcc/src/pic14/gen.c:2316:resultRemat *{*
                      00965 ;;; /home/sdcc-builder/build/sdcc-build/orig/sdcc/src/pic14/gen.c:3583:genCmpLt *{*
                      00966 ;; ***  genCmpLt  3584
                      00967 ;; ***  aopForSym 315
                      00968 ;;      327 sym->rname = _Current_Temp, size = 1
                      00969 ;;; /home/sdcc-builder/build/sdcc-build/orig/sdcc/src/pic14/gen.c:3294:genCmp *{*
                      00970 ;;unsigned compare: left < lit(0x23=35), size=1
                      00971 ;; >>> /home/sdcc-builder/build/sdcc-build/orig/sdcc/src/pic14/gen.c:3265:pic14_mov2w_regOrLit
                      00972         .line   228; "WH.c"     if (Current_Temp >= MIN_TEMP)
009E   3023           00973         MOVLW   0x23
                      00974 ;; >>> /home/sdcc-builder/build/sdcc-build/orig/sdcc/src/pic14/gen.c:3432:genCmp
                      00975 ;;      1009
                      00976 ;;      1028  _Current_Temp   offset=0
009F   ???? ????      00977         BANKSEL _Current_Temp
00A1   02??           00978         SUBWF   _Current_Temp,W
                      00979 ;;; /home/sdcc-builder/build/sdcc-build/orig/sdcc/src/pic14/gen.c:3237:genSkipc *{*
                      00980 ;; >>> /home/sdcc-builder/build/sdcc-build/orig/sdcc/src/pic14/gen.c:3244:genSkipc
00A2   1C03           00981         BTFSS   STATUS,0
                      00982 ;; >>> /home/sdcc-builder/build/sdcc-build/orig/sdcc/src/pic14/gen.c:3246:genSkipc
                      00983 ;; ***  popGetLabel  key=21, label offset 93
00A3   2???           00984         GOTO    _00214_DS_
                      00985 ;;genSkipc:3247: created from rifx:027A5DF4
                      00986 ;;; /home/sdcc-builder/build/sdcc-build/orig/sdcc/src/pic14/gen.c:2316:resultRemat *{*
                      00987 ;;; /home/sdcc-builder/build/sdcc-build/orig/sdcc/src/pic14/gen.c:2316:resultRemat *{*
                      00988 ;;; /home/sdcc-builder/build/sdcc-build/orig/sdcc/src/pic14/gen.c:7317:genDjnz *{*
                      00989 ;; ***  genDjnz  7318
                      00990 ;;; /home/sdcc-builder/build/sdcc-build/orig/sdcc/src/pic14/genarith.c:896:genMinus *{*
                      00991 ;; ***  genMinus  897
                      00992 ;; ***  aopForSym 315
gpasm-1.4.0 #1106 (Oct  6 2014) obj\Debug\WH.   7-7-2020  18:11:58          PAGE 20


LOC    OBJECT CODE    LINE  SOURCE TEXT
  VALUE

                      00993 ;;      327 sym->rname = _Current_Temp, size = 1
                      00994 ;;      575
                      00995 ;;      result AOP_DIR, left AOP_DIR, right AOP_LIT
                      00996 ;;; /home/sdcc-builder/build/sdcc-build/orig/sdcc/src/pic14/genarith.c:269:genAddLit *{*
                      00997 ;; ***  genAddLit  270
                      00998 ;;; /home/sdcc-builder/build/sdcc-build/orig/sdcc/src/pic14/genarith.c:233:genAddLit2byte *{*
                      00999 ;; >>> /home/sdcc-builder/build/sdcc-build/orig/sdcc/src/pic14/genarith.c:245:genAddLit2byte
                      01000         .line   230; "WH.c"     Current_Temp -= TEMP_CHANGE_RATE;
00A4   30FB           01001         MOVLW   0xfb
                      01002 ;; >>> /home/sdcc-builder/build/sdcc-build/orig/sdcc/src/pic14/genarith.c:246:genAddLit2byte
                      01003 ;;      1009
                      01004 ;;      1028  _Current_Temp   offset=0
00A5   07??           01005         ADDWF   _Current_Temp,F
                      01006 ;; ***  addSign  861
                      01007 ;;; /home/sdcc-builder/build/sdcc-build/orig/sdcc/src/pic14/genarith.c:862:addSign *{*
                      01008 ;;; /home/sdcc-builder/build/sdcc-build/orig/sdcc/src/pic14/gen.c:2316:resultRemat *{*
                      01009 ;;; /home/sdcc-builder/build/sdcc-build/orig/sdcc/src/pic14/gen.c:3583:genCmpLt *{*
                      01010 ;; ***  genCmpLt  3584
                      01011 ;; ***  aopForSym 315
                      01012 ;;      327 sym->rname = _Current_Temp, size = 1
                      01013 ;;; /home/sdcc-builder/build/sdcc-build/orig/sdcc/src/pic14/gen.c:3294:genCmp *{*
                      01014 ;;unsigned compare: left < lit(0x23=35), size=1
                      01015 ;; >>> /home/sdcc-builder/build/sdcc-build/orig/sdcc/src/pic14/gen.c:3265:pic14_mov2w_regOrLit
                      01016         .line   232; "WH.c"     if(Current_Temp < MIN_TEMP)
00A6   3023           01017         MOVLW   0x23
                      01018 ;; >>> /home/sdcc-builder/build/sdcc-build/orig/sdcc/src/pic14/gen.c:3432:genCmp
                      01019 ;;      1009
                      01020 ;;      1028  _Current_Temp   offset=0
00A7   02??           01021         SUBWF   _Current_Temp,W
                      01022 ;;; /home/sdcc-builder/build/sdcc-build/orig/sdcc/src/pic14/gen.c:3237:genSkipc *{*
                      01023 ;; >>> /home/sdcc-builder/build/sdcc-build/orig/sdcc/src/pic14/gen.c:3242:genSkipc
00A8   1803           01024         BTFSC   STATUS,0
                      01025 ;; >>> /home/sdcc-builder/build/sdcc-build/orig/sdcc/src/pic14/gen.c:3246:genSkipc
                      01026 ;; ***  popGetLabel  key=21, label offset 93
00A9   2???           01027         GOTO    _00214_DS_
                      01028 ;;genSkipc:3247: created from rifx:027A5DF4
                      01029 ;;; /home/sdcc-builder/build/sdcc-build/orig/sdcc/src/pic14/gen.c:2316:resultRemat *{*
                      01030 ;;; /home/sdcc-builder/build/sdcc-build/orig/sdcc/src/pic14/gen.c:2316:resultRemat *{*
                      01031 ;;; /home/sdcc-builder/build/sdcc-build/orig/sdcc/src/pic14/gen.c:6927:genAssign *{*
                      01032 ;; ***  genAssign  6928
                      01033 ;; ***  aopForSym 315
                      01034 ;;      327 sym->rname = _Current_Temp, size = 1
                      01035 ;;      line = 6937 result AOP_DIR=_Current_Temp, size=1, left -=-, size=0, right AOP_LIT=0x23, size=1
                      01036 ;; ***  genAssign  7023
                      01037 ;; >>> /home/sdcc-builder/build/sdcc-build/orig/sdcc/src/pic14/gen.c:7030:genAssign
                      01038         .line   234; "WH.c"     Current_Temp = MIN_TEMP;
00AA   3023           01039         MOVLW   0x23
                      01040 ;; >>> /home/sdcc-builder/build/sdcc-build/orig/sdcc/src/pic14/gen.c:7032:genAssign
                      01041 ;;      1009
                      01042 ;;      1028  _Current_Temp   offset=0
00AB   00??           01043         MOVWF   _Current_Temp
                      01044 ;;; /home/sdcc-builder/build/sdcc-build/orig/sdcc/src/pic14/gen.c:2316:resultRemat *{*
                      01045 ;;; /home/sdcc-builder/build/sdcc-build/orig/sdcc/src/pic14/gen.c:2760:genLabel *{*
gpasm-1.4.0 #1106 (Oct  6 2014) obj\Debug\WH.   7-7-2020  18:11:58          PAGE 21


LOC    OBJECT CODE    LINE  SOURCE TEXT
  VALUE

                      01046 ;; ***  genLabel  2763
                      01047 ;;; /home/sdcc-builder/build/sdcc-build/orig/sdcc/src/pic14/gen.c:2316:resultRemat *{*
                      01048 ;;; /home/sdcc-builder/build/sdcc-build/orig/sdcc/src/pic14/gen.c:3619:genCmpEq *{*
                      01049 ;; ***  genCmpEq  3620
                      01050 ;; ifx is non-null
                      01051 ;;      694 register type nRegs=1
                      01052 ;;      line = 3631 result AOP_CRY=0x00, size=0, left AOP_REG=r0x1058, size=1, right AOP_LIT=0x01, size=
                            1
                      01053 ;; ***  mov2w  1381  offset=0
                      01054 ;; >>> /home/sdcc-builder/build/sdcc-build/orig/sdcc/src/pic14/gen.c:1386:mov2w
                      01055 ;;      1109 rIdx = r0x1058 
00AC                  01056 _00214_DS_
                      01057         .line   242; "WH.c"     if(Setting_ClickedFlag == 1)
00AC   ???? ????      01058         BANKSEL r0x100C
00AE   08??           01059         MOVF    r0x100C,W
                      01060 ;; >>> /home/sdcc-builder/build/sdcc-build/orig/sdcc/src/pic14/gen.c:3685:genCmpEq
00AF   3A01           01061         XORLW   0x01
                      01062 ;; >>> /home/sdcc-builder/build/sdcc-build/orig/sdcc/src/pic14/gen.c:3687:genCmpEq
00B0   1D03           01063         BTFSS   STATUS,2
                      01064 ;; >>> /home/sdcc-builder/build/sdcc-build/orig/sdcc/src/pic14/gen.c:3690:genCmpEq
                      01065 ;; ***  popGetLabel  key=24, label offset 93
00B1   2???           01066         GOTO    _00217_DS_
                      01067 ;;; /home/sdcc-builder/build/sdcc-build/orig/sdcc/src/pic14/gen.c:2316:resultRemat *{*
                      01068 ;;; /home/sdcc-builder/build/sdcc-build/orig/sdcc/src/pic14/gen.c:2316:resultRemat *{*
                      01069 ;;; /home/sdcc-builder/build/sdcc-build/orig/sdcc/src/pic14/gen.c:6927:genAssign *{*
                      01070 ;; ***  genAssign  6928
                      01071 ;; ***  aopForSym 315
                      01072 ;;      327 sym->rname = _Settings, size = 1
                      01073 ;;      line = 6937 result AOP_DIR=_Settings, size=1, left -=-, size=0, right AOP_LIT=0x01, size=1
                      01074 ;; ***  genAssign  7023
                      01075 ;; >>> /home/sdcc-builder/build/sdcc-build/orig/sdcc/src/pic14/gen.c:7030:genAssign
                      01076         .line   244; "WH.c"     Settings = WH_SETTING;
00B2   3001           01077         MOVLW   0x01
                      01078 ;; >>> /home/sdcc-builder/build/sdcc-build/orig/sdcc/src/pic14/gen.c:7032:genAssign
                      01079 ;;      1009
                      01080 ;;      1028  _Settings   offset=0
00B3   ???? ????      01081         BANKSEL _Settings
00B5   00??           01082         MOVWF   _Settings
                      01083 ;;; /home/sdcc-builder/build/sdcc-build/orig/sdcc/src/pic14/gen.c:2316:resultRemat *{*
                      01084 ;;; /home/sdcc-builder/build/sdcc-build/orig/sdcc/src/pic14/gen.c:6927:genAssign *{*
                      01085 ;; ***  genAssign  6928
                      01086 ;; ***  aopForSym 315
                      01087 ;;      327 sym->rname = _WH_Setting_Counter, size = 2
                      01088 ;;      line = 6937 result AOP_DIR=_WH_Setting_Counter, size=2, left -=-, size=0, right AOP_LIT=0x00, si
                            ze=2
                      01089 ;; ***  genAssign  7023
                      01090 ;; >>> /home/sdcc-builder/build/sdcc-build/orig/sdcc/src/pic14/gen.c:7035:genAssign
                      01091 ;;      1009
                      01092 ;;      1028  _WH_Setting_Counter   offset=0
                      01093         .line   245; "WH.c"     WH_Setting_Counter = 0;
00B6   ???? ????      01094         BANKSEL _WH_Setting_Counter
00B8   01??           01095         CLRF    _WH_Setting_Counter
                      01096 ;; ***  genAssign  7023
gpasm-1.4.0 #1106 (Oct  6 2014) obj\Debug\WH.   7-7-2020  18:11:58          PAGE 22


LOC    OBJECT CODE    LINE  SOURCE TEXT
  VALUE

                      01097 ;; >>> /home/sdcc-builder/build/sdcc-build/orig/sdcc/src/pic14/gen.c:7035:genAssign
                      01098 ;;      1009
                      01099 ;;      1028  _WH_Setting_Counter   offset=1
00B9   01??           01100         CLRF    (_WH_Setting_Counter + 1)
                      01101 ;;; /home/sdcc-builder/build/sdcc-build/orig/sdcc/src/pic14/gen.c:2316:resultRemat *{*
                      01102 ;;; /home/sdcc-builder/build/sdcc-build/orig/sdcc/src/pic14/gen.c:2760:genLabel *{*
                      01103 ;; ***  genLabel  2763
                      01104 ;;; /home/sdcc-builder/build/sdcc-build/orig/sdcc/src/pic14/gen.c:2316:resultRemat *{*
                      01105 ;;; /home/sdcc-builder/build/sdcc-build/orig/sdcc/src/pic14/gen.c:2528:genEndFunction *{*
                      01106 ;; ***  genEndFunction  2530
00BA                  01107 _00217_DS_
00BA   0008           01108         RETURN  
                      01109 ; exit point of _WH_CheckChange
                      01110 ;;; /home/sdcc-builder/build/sdcc-build/orig/sdcc/src/pic14/gen.c:7426:genpic14Code *{*
                      01111 
                      01112 ;***
                      01113 ;  pBlock Stats: dbName = C
                      01114 ;***
                      01115 ;entry:  _WH_Cool_Heat  ;Function start
                      01116 ; 2 exit points
                      01117 ;has an exit
                      01118 ;functions called:
                      01119 ;   _TempS_ReadDone
                      01120 ;   _TempS_AvgReadings
                      01121 ;   _TempS_AvgReadings
                      01122 ;   _TempS_AvgReadings
                      01123 ;   _Heat_SetState
                      01124 ;   _Cool_SetState
                      01125 ;   _TempS_AvgReadings
                      01126 ;   _TempS_AvgReadings
                      01127 ;   _Heat_SetState
                      01128 ;   _Cool_SetState
                      01129 ;   _Heat_SetState
                      01130 ;   _Cool_SetState
                      01131 ;   _TempS_CLRReadFlag
                      01132 ;   _TempS_ReadDone
                      01133 ;   _TempS_AvgReadings
                      01134 ;   _TempS_AvgReadings
                      01135 ;   _TempS_AvgReadings
                      01136 ;   _Heat_SetState
                      01137 ;   _Cool_SetState
                      01138 ;   _TempS_AvgReadings
                      01139 ;   _TempS_AvgReadings
                      01140 ;   _Heat_SetState
                      01141 ;   _Cool_SetState
                      01142 ;   _Heat_SetState
                      01143 ;   _Cool_SetState
                      01144 ;   _TempS_CLRReadFlag
                      01145 ;7 compiler assigned registers:
                      01146 ;   r0x100E
                      01147 ;   r0x100F
                      01148 ;   STK00
                      01149 ;   r0x1010
gpasm-1.4.0 #1106 (Oct  6 2014) obj\Debug\WH.   7-7-2020  18:11:58          PAGE 23


LOC    OBJECT CODE    LINE  SOURCE TEXT
  VALUE

                      01150 ;   r0x1011
                      01151 ;   r0x1012
                      01152 ;   r0x1013
                      01153 ;; Starting pCode block
                      01154 ;;; /home/sdcc-builder/build/sdcc-build/orig/sdcc/src/pic14/gen.c:2316:resultRemat *{*
                      01155 ;;; /home/sdcc-builder/build/sdcc-build/orig/sdcc/src/pic14/gen.c:2760:genLabel *{*
                      01156 ;; ***  genLabel  2763
                      01157 ;;; /home/sdcc-builder/build/sdcc-build/orig/sdcc/src/pic14/gen.c:2316:resultRemat *{*
                      01158 ;;; /home/sdcc-builder/build/sdcc-build/orig/sdcc/src/pic14/gen.c:2340:genFunction *{*
                      01159 ;; ***  genFunction  2342 curr label offset=47previous max_key=0 
00BB                  01160 _WH_Cool_Heat   ;Function start
                      01161 ; 2 exit points
                      01162 ;;; /home/sdcc-builder/build/sdcc-build/orig/sdcc/src/pic14/gen.c:2316:resultRemat *{*
                      01163 ;;; /home/sdcc-builder/build/sdcc-build/orig/sdcc/src/pic14/gen.c:2086:genCall *{*
                      01164 ;; ***  genCall  2088
                      01165 ;;; /home/sdcc-builder/build/sdcc-build/orig/sdcc/src/pic14/gen.c:1801:saveRegisters *{*
                      01166 ;; ***  saveRegisters  1803
                      01167 ;; >>> /home/sdcc-builder/build/sdcc-build/orig/sdcc/src/pic14/gen.c:2173:genCall
                      01168         .line   146; "WH.c"     if(TempS_ReadDone() == 1)
00BB   ???? ????      01169         PAGESEL _TempS_ReadDone
                      01170 ;; >>> /home/sdcc-builder/build/sdcc-build/orig/sdcc/src/pic14/gen.c:2175:genCall
00BD   2???           01171         CALL    _TempS_ReadDone
                      01172 ;; >>> /home/sdcc-builder/build/sdcc-build/orig/sdcc/src/pic14/gen.c:2181:genCall
00BE   ???? ????      01173         PAGESEL $
                      01174 ;;      694 register type nRegs=1
                      01175 ;;; /home/sdcc-builder/build/sdcc-build/orig/sdcc/src/pic14/gen.c:1907:assignResultValue *{*
                      01176 ;; ***  assignResultValue  1909
                      01177 ;;      line = 1911 result -=-, size=0, left AOP_REG=r0x1052, size=1, right -=-, size=0
                      01178 ;; >>> /home/sdcc-builder/build/sdcc-build/orig/sdcc/src/pic14/gen.c:1393:movwf
                      01179 ;;      1109 rIdx = r0x1052 
00C0   ???? ????      01180         BANKSEL r0x100E
00C2   00??           01181         MOVWF   r0x100E
00C3   3A01           01182         XORLW   0x01
                      01183 ;; >>> /home/sdcc-builder/build/sdcc-build/orig/sdcc/src/pic14/gen.c:3687:genCmpEq
00C4   1D03           01184         BTFSS   STATUS,2
                      01185 ;; >>> /home/sdcc-builder/build/sdcc-build/orig/sdcc/src/pic14/gen.c:3690:genCmpEq
                      01186 ;; ***  popGetLabel  key=14, label offset 51
00C5   2???           01187         GOTO    _00165_DS_
                      01188 ;;; /home/sdcc-builder/build/sdcc-build/orig/sdcc/src/pic14/gen.c:2316:resultRemat *{*
                      01189 ;;; /home/sdcc-builder/build/sdcc-build/orig/sdcc/src/pic14/gen.c:2316:resultRemat *{*
                      01190 ;;; /home/sdcc-builder/build/sdcc-build/orig/sdcc/src/pic14/gen.c:2086:genCall *{*
                      01191 ;; ***  genCall  2088
                      01192 ;;; /home/sdcc-builder/build/sdcc-build/orig/sdcc/src/pic14/gen.c:1801:saveRegisters *{*
                      01193 ;; ***  saveRegisters  1803
                      01194 ;; >>> /home/sdcc-builder/build/sdcc-build/orig/sdcc/src/pic14/gen.c:2173:genCall
                      01195         .line   148; "WH.c"     if(TempS_AvgReadings() != Current_Temp)
00C6   ???? ????      01196         PAGESEL _TempS_AvgReadings
                      01197 ;; >>> /home/sdcc-builder/build/sdcc-build/orig/sdcc/src/pic14/gen.c:2175:genCall
00C8   2???           01198         CALL    _TempS_AvgReadings
                      01199 ;; >>> /home/sdcc-builder/build/sdcc-build/orig/sdcc/src/pic14/gen.c:2181:genCall
00C9   ???? ????      01200         PAGESEL $
                      01201 ;;      694 register type nRegs=2
                      01202 ;;; /home/sdcc-builder/build/sdcc-build/orig/sdcc/src/pic14/gen.c:1907:assignResultValue *{*
gpasm-1.4.0 #1106 (Oct  6 2014) obj\Debug\WH.   7-7-2020  18:11:58          PAGE 24


LOC    OBJECT CODE    LINE  SOURCE TEXT
  VALUE

                      01203 ;; ***  assignResultValue  1909
                      01204 ;;      line = 1911 result -=-, size=0, left AOP_REG=r0x1052, size=2, right -=-, size=0
                      01205 ;; >>> /home/sdcc-builder/build/sdcc-build/orig/sdcc/src/pic14/gen.c:1393:movwf
                      01206 ;;      1109 rIdx = r0x1053 
00CB   ???? ????      01207         BANKSEL r0x100F
00CD   00??           01208         MOVWF   r0x100F
                      01209 ;; >>> /home/sdcc-builder/build/sdcc-build/orig/sdcc/src/pic14/gen.c:1423:get_returnvalue
                      01210 ;; ***  popRegFromIdx,1042  , rIdx=0x7f
00CE   08??           01211         MOVF    STK00,W
                      01212 ;; >>> /home/sdcc-builder/build/sdcc-build/orig/sdcc/src/pic14/gen.c:1393:movwf
                      01213 ;;      1109 rIdx = r0x1052 
00CF   00??           01214         MOVWF   r0x100E
                      01215 ;;      2195 left AOP_REG
                      01216 ;;; /home/sdcc-builder/build/sdcc-build/orig/sdcc/src/pic14/gen.c:1845:unsaveRegisters *{*
                      01217 ;; ***  unsaveRegisters  1847
                      01218 ;;; /home/sdcc-builder/build/sdcc-build/orig/sdcc/src/pic14/gen.c:2316:resultRemat *{*
                      01219 ;;; /home/sdcc-builder/build/sdcc-build/orig/sdcc/src/pic14/gen.c:7120:genCast *{*
                      01220 ;; ***  genCast  7121
                      01221 ;; ***  aopForSym 315
                      01222 ;;      327 sym->rname = _Current_Temp, size = 1
                      01223 ;;      694 register type nRegs=2
                      01224 ;;      line = 7129 result AOP_REG=r0x1054, size=2, left -=-, size=0, right AOP_DIR=_Current_Temp, size=
                            1
                      01225 ;; >>> /home/sdcc-builder/build/sdcc-build/orig/sdcc/src/pic14/gen.c:7298:genCast
                      01226 ;;      1009
                      01227 ;;      1028  _Current_Temp   offset=0
                      01228 ;;107   MOVF    _Current_Temp,W
                      01229 ;; >>> /home/sdcc-builder/build/sdcc-build/orig/sdcc/src/pic14/gen.c:7299:genCast
                      01230 ;;      1109 rIdx = r0x1054 
                      01231 ;; ***  addSign  861
                      01232 ;;; /home/sdcc-builder/build/sdcc-build/orig/sdcc/src/pic14/genarith.c:862:addSign *{*
                      01233 ;; >>> /home/sdcc-builder/build/sdcc-build/orig/sdcc/src/pic14/genarith.c:881:addSign
                      01234 ;;      1109 rIdx = r0x1055 
00D0   01??           01235         CLRF    r0x1011
                      01236 ;;; /home/sdcc-builder/build/sdcc-build/orig/sdcc/src/pic14/gen.c:2316:resultRemat *{*
                      01237 ;;; /home/sdcc-builder/build/sdcc-build/orig/sdcc/src/pic14/gen.c:3619:genCmpEq *{*
                      01238 ;; ***  genCmpEq  3620
                      01239 ;; ifx is non-null
                      01240 ;;      694 register type nRegs=2
                      01241 ;;      694 register type nRegs=2
                      01242 ;;      line = 3631 result AOP_CRY=0x00, size=0, left AOP_REG=r0x1052, size=2, right AOP_REG=r0x1054, si
                            ze=2
                      01243 ;; ***  mov2w  1381  offset=0
                      01244 ;; >>> /home/sdcc-builder/build/sdcc-build/orig/sdcc/src/pic14/gen.c:1386:mov2w
                      01245 ;;      1109 rIdx = r0x1054 
                      01246 ;;106   MOVF    r0x1010,W
00D1   ???? ????      01247         BANKSEL _Current_Temp
00D3   08??           01248         MOVF    _Current_Temp,W
00D4   ???? ????      01249         BANKSEL r0x1010
00D6   00??           01250         MOVWF   r0x1010
                      01251 ;; >>> /home/sdcc-builder/build/sdcc-build/orig/sdcc/src/pic14/gen.c:3703:genCmpEq
                      01252 ;;      1109 rIdx = r0x1052 
00D7   06??           01253         XORWF   r0x100E,W
gpasm-1.4.0 #1106 (Oct  6 2014) obj\Debug\WH.   7-7-2020  18:11:58          PAGE 25


LOC    OBJECT CODE    LINE  SOURCE TEXT
  VALUE

                      01254 ;; >>> /home/sdcc-builder/build/sdcc-build/orig/sdcc/src/pic14/gen.c:3705:genCmpEq
00D8   1D03           01255         BTFSS   STATUS,2
                      01256 ;; >>> /home/sdcc-builder/build/sdcc-build/orig/sdcc/src/pic14/gen.c:3708:genCmpEq
                      01257 ;; ***  popGetLabel  key=34, label offset 51
00D9   2???           01258         GOTO    _00185_DS_
                      01259 ;; ***  mov2w  1381  offset=1
                      01260 ;; >>> /home/sdcc-builder/build/sdcc-build/orig/sdcc/src/pic14/gen.c:1386:mov2w
                      01261 ;;      1109 rIdx = r0x1055 
00DA   08??           01262         MOVF    r0x1011,W
                      01263 ;; >>> /home/sdcc-builder/build/sdcc-build/orig/sdcc/src/pic14/gen.c:3703:genCmpEq
                      01264 ;;      1109 rIdx = r0x1053 
                      01265         .line   151; "WH.c"     if(TempS_AvgReadings() >= Current_Temp+5)
00DB   06??           01266         XORWF   r0x100F,W
00DC   1903           01267         BTFSC   STATUS,2
00DD   2???           01268         GOTO    _00161_DS_
00DE                  01269 _00185_DS_
00DE   ???? ????      01270         PAGESEL _TempS_AvgReadings
00E0   2???           01271         CALL    _TempS_AvgReadings
                      01272 ;; >>> /home/sdcc-builder/build/sdcc-build/orig/sdcc/src/pic14/gen.c:2181:genCall
00E1   ???? ????      01273         PAGESEL $
                      01274 ;;      694 register type nRegs=2
                      01275 ;;; /home/sdcc-builder/build/sdcc-build/orig/sdcc/src/pic14/gen.c:1907:assignResultValue *{*
                      01276 ;; ***  assignResultValue  1909
                      01277 ;;      line = 1911 result -=-, size=0, left AOP_REG=r0x1052, size=2, right -=-, size=0
                      01278 ;; >>> /home/sdcc-builder/build/sdcc-build/orig/sdcc/src/pic14/gen.c:1393:movwf
                      01279 ;;      1109 rIdx = r0x1053 
00E3   ???? ????      01280         BANKSEL r0x100F
00E5   00??           01281         MOVWF   r0x100F
                      01282 ;; >>> /home/sdcc-builder/build/sdcc-build/orig/sdcc/src/pic14/gen.c:1423:get_returnvalue
                      01283 ;; ***  popRegFromIdx,1042  , rIdx=0x7f
00E6   08??           01284         MOVF    STK00,W
                      01285 ;; >>> /home/sdcc-builder/build/sdcc-build/orig/sdcc/src/pic14/gen.c:1393:movwf
                      01286 ;;      1109 rIdx = r0x1052 
00E7   00??           01287         MOVWF   r0x100E
                      01288 ;;      2195 left AOP_REG
                      01289 ;;; /home/sdcc-builder/build/sdcc-build/orig/sdcc/src/pic14/gen.c:1845:unsaveRegisters *{*
                      01290 ;; ***  unsaveRegisters  1847
                      01291 ;;; /home/sdcc-builder/build/sdcc-build/orig/sdcc/src/pic14/gen.c:2316:resultRemat *{*
                      01292 ;;; /home/sdcc-builder/build/sdcc-build/orig/sdcc/src/pic14/gen.c:7120:genCast *{*
                      01293 ;; ***  genCast  7121
                      01294 ;; ***  aopForSym 315
                      01295 ;;      327 sym->rname = _Current_Temp, size = 1
                      01296 ;;      694 register type nRegs=2
                      01297 ;;      line = 7129 result AOP_REG=r0x1054, size=2, left -=-, size=0, right AOP_DIR=_Current_Temp, size=
                            1
                      01298 ;; >>> /home/sdcc-builder/build/sdcc-build/orig/sdcc/src/pic14/gen.c:7298:genCast
                      01299 ;;      1009
                      01300 ;;      1028  _Current_Temp   offset=0
00E8   ???? ????      01301         BANKSEL _Current_Temp
00EA   08??           01302         MOVF    _Current_Temp,W
                      01303 ;; >>> /home/sdcc-builder/build/sdcc-build/orig/sdcc/src/pic14/gen.c:7299:genCast
                      01304 ;;      1109 rIdx = r0x1054 
00EB   ???? ????      01305         BANKSEL r0x1010
gpasm-1.4.0 #1106 (Oct  6 2014) obj\Debug\WH.   7-7-2020  18:11:58          PAGE 26


LOC    OBJECT CODE    LINE  SOURCE TEXT
  VALUE

00ED   00??           01306         MOVWF   r0x1010
                      01307 ;; ***  addSign  861
                      01308 ;;; /home/sdcc-builder/build/sdcc-build/orig/sdcc/src/pic14/genarith.c:862:addSign *{*
                      01309 ;; >>> /home/sdcc-builder/build/sdcc-build/orig/sdcc/src/pic14/genarith.c:881:addSign
                      01310 ;;      1109 rIdx = r0x1055 
00EE   01??           01311         CLRF    r0x1011
                      01312 ;;; /home/sdcc-builder/build/sdcc-build/orig/sdcc/src/pic14/gen.c:2316:resultRemat *{*
                      01313 ;; ***  genPlus  611
                      01314 ;;; /home/sdcc-builder/build/sdcc-build/orig/sdcc/src/pic14/genarith.c:612:genPlus *{*
                      01315 ;;      694 register type nRegs=2
                      01316 ;;      694 register type nRegs=2
                      01317 ;;      line = 618 result AOP_REG=r0x1054, size=2, left AOP_REG=r0x1054, size=2, right AOP_LIT=0x05, siz
                            e=2
                      01318 ;;; /home/sdcc-builder/build/sdcc-build/orig/sdcc/src/pic14/genarith.c:142:genPlusIncr *{*
                      01319 ;; ***  genPlusIncr  144
                      01320 ;;      result AOP_REG, left AOP_REG, right AOP_LIT
                      01321 ;;      genPlusIncr  156
                      01322 ;;      adding lit to something. size 2
                      01323 ;;; /home/sdcc-builder/build/sdcc-build/orig/sdcc/src/pic14/genarith.c:269:genAddLit *{*
                      01324 ;; ***  genAddLit  270
                      01325 ;; hi = 0       genAddLit  328
                      01326 ;; >>> /home/sdcc-builder/build/sdcc-build/orig/sdcc/src/pic14/genarith.c:344:genAddLit
00EF   3005           01327         MOVLW   0x05
                      01328 ;; >>> /home/sdcc-builder/build/sdcc-build/orig/sdcc/src/pic14/genarith.c:345:genAddLit
                      01329 ;;      1109 rIdx = r0x1054 
00F0   07??           01330         ADDWF   r0x1010,F
                      01331 ;; >>> /home/sdcc-builder/build/sdcc-build/orig/sdcc/src/pic14/genarith.c:346:genAddLit
00F1   1803           01332         BTFSC   STATUS,0
                      01333 ;; >>> /home/sdcc-builder/build/sdcc-build/orig/sdcc/src/pic14/genarith.c:347:genAddLit
                      01334 ;;      1109 rIdx = r0x1055 
00F2   0A??           01335         INCF    r0x1011,F
                      01336 ;; ***  addSign  861
                      01337 ;;; /home/sdcc-builder/build/sdcc-build/orig/sdcc/src/pic14/genarith.c:862:addSign *{*
                      01338 ;;; /home/sdcc-builder/build/sdcc-build/orig/sdcc/src/pic14/gen.c:2316:resultRemat *{*
                      01339 ;;; /home/sdcc-builder/build/sdcc-build/orig/sdcc/src/pic14/gen.c:7120:genCast *{*
                      01340 ;; ***  genCast  7121
                      01341 ;;      694 register type nRegs=2
                      01342 ;;      694 register type nRegs=2
                      01343 ;;      line = 7129 result AOP_REG=r0x1056, size=2, left -=-, size=0, right AOP_REG=r0x1054, size=2
                      01344 ;; ***  genCast  7253
                      01345 ;; >>> /home/sdcc-builder/build/sdcc-build/orig/sdcc/src/pic14/gen.c:7277:genCast
                      01346 ;;      1109 rIdx = r0x1054 
00F3   08??           01347         MOVF    r0x1010,W
                      01348 ;; >>> /home/sdcc-builder/build/sdcc-build/orig/sdcc/src/pic14/gen.c:7278:genCast
                      01349 ;;      1109 rIdx = r0x1056 
00F4   00??           01350         MOVWF   r0x1012
                      01351 ;; >>> /home/sdcc-builder/build/sdcc-build/orig/sdcc/src/pic14/gen.c:7277:genCast
                      01352 ;;      1109 rIdx = r0x1055 
00F5   08??           01353         MOVF    r0x1011,W
00F6   00??           01354         MOVWF   r0x1013
00F7   02??           01355         SUBWF   r0x100F,W
                      01356 ;; >>> /home/sdcc-builder/build/sdcc-build/orig/sdcc/src/pic14/gen.c:3477:genCmp
00F8   1D03           01357         BTFSS   STATUS,2
gpasm-1.4.0 #1106 (Oct  6 2014) obj\Debug\WH.   7-7-2020  18:11:58          PAGE 27


LOC    OBJECT CODE    LINE  SOURCE TEXT
  VALUE

                      01358 ;; >>> /home/sdcc-builder/build/sdcc-build/orig/sdcc/src/pic14/gen.c:3478:genCmp
                      01359 ;; ***  popGetLabel  key=35, label offset 51
00F9   2???           01360         GOTO    _00186_DS_
                      01361 ;; >>> /home/sdcc-builder/build/sdcc-build/orig/sdcc/src/pic14/gen.c:3269:pic14_mov2w_regOrLit
                      01362 ;;      1109 rIdx = r0x1056 
00FA   08??           01363         MOVF    r0x1012,W
                      01364 ;; >>> /home/sdcc-builder/build/sdcc-build/orig/sdcc/src/pic14/gen.c:3480:genCmp
                      01365 ;;      1109 rIdx = r0x1052 
00FB   02??           01366         SUBWF   r0x100E,W
                      01367 ;;; /home/sdcc-builder/build/sdcc-build/orig/sdcc/src/pic14/gen.c:3237:genSkipc *{*
                      01368 ;; >>> /home/sdcc-builder/build/sdcc-build/orig/sdcc/src/pic14/gen.c:3244:genSkipc
00FC                  01369 _00186_DS_
00FC   1C03           01370         BTFSS   STATUS,0
                      01371 ;; >>> /home/sdcc-builder/build/sdcc-build/orig/sdcc/src/pic14/gen.c:3246:genSkipc
                      01372 ;; ***  popGetLabel  key=4, label offset 51
00FD   2???           01373         GOTO    _00155_DS_
                      01374 ;;genSkipc:3247: created from rifx:027A5DF4
                      01375 ;;; /home/sdcc-builder/build/sdcc-build/orig/sdcc/src/pic14/gen.c:2316:resultRemat *{*
                      01376 ;;; /home/sdcc-builder/build/sdcc-build/orig/sdcc/src/pic14/gen.c:2316:resultRemat *{*
                      01377 ;;; /home/sdcc-builder/build/sdcc-build/orig/sdcc/src/pic14/gen.c:2086:genCall *{*
                      01378 ;; ***  genCall  2088
                      01379 ;;; /home/sdcc-builder/build/sdcc-build/orig/sdcc/src/pic14/gen.c:1801:saveRegisters *{*
                      01380 ;; ***  saveRegisters  1803
                      01381 ;; >>> /home/sdcc-builder/build/sdcc-build/orig/sdcc/src/pic14/gen.c:2173:genCall
                      01382         .line   153; "WH.c"     if(TempS_AvgReadings() != Current_Temp)
00FE   ???? ????      01383         PAGESEL _TempS_AvgReadings
                      01384 ;; >>> /home/sdcc-builder/build/sdcc-build/orig/sdcc/src/pic14/gen.c:2175:genCall
0100   2???           01385         CALL    _TempS_AvgReadings
                      01386 ;; >>> /home/sdcc-builder/build/sdcc-build/orig/sdcc/src/pic14/gen.c:2181:genCall
0101   ???? ????      01387         PAGESEL $
                      01388 ;;      694 register type nRegs=2
                      01389 ;;; /home/sdcc-builder/build/sdcc-build/orig/sdcc/src/pic14/gen.c:1907:assignResultValue *{*
                      01390 ;; ***  assignResultValue  1909
                      01391 ;;      line = 1911 result -=-, size=0, left AOP_REG=r0x1052, size=2, right -=-, size=0
                      01392 ;; >>> /home/sdcc-builder/build/sdcc-build/orig/sdcc/src/pic14/gen.c:1393:movwf
                      01393 ;;      1109 rIdx = r0x1053 
0103   ???? ????      01394         BANKSEL r0x100F
0105   00??           01395         MOVWF   r0x100F
                      01396 ;; >>> /home/sdcc-builder/build/sdcc-build/orig/sdcc/src/pic14/gen.c:1423:get_returnvalue
                      01397 ;; ***  popRegFromIdx,1042  , rIdx=0x7f
0106   08??           01398         MOVF    STK00,W
                      01399 ;; >>> /home/sdcc-builder/build/sdcc-build/orig/sdcc/src/pic14/gen.c:1393:movwf
                      01400 ;;      1109 rIdx = r0x1052 
0107   00??           01401         MOVWF   r0x100E
                      01402 ;;      2195 left AOP_REG
                      01403 ;;; /home/sdcc-builder/build/sdcc-build/orig/sdcc/src/pic14/gen.c:1845:unsaveRegisters *{*
                      01404 ;; ***  unsaveRegisters  1847
                      01405 ;;; /home/sdcc-builder/build/sdcc-build/orig/sdcc/src/pic14/gen.c:2316:resultRemat *{*
                      01406 ;;; /home/sdcc-builder/build/sdcc-build/orig/sdcc/src/pic14/gen.c:7120:genCast *{*
                      01407 ;; ***  genCast  7121
                      01408 ;; ***  aopForSym 315
                      01409 ;;      327 sym->rname = _Current_Temp, size = 1
                      01410 ;;      694 register type nRegs=2
gpasm-1.4.0 #1106 (Oct  6 2014) obj\Debug\WH.   7-7-2020  18:11:58          PAGE 28


LOC    OBJECT CODE    LINE  SOURCE TEXT
  VALUE

                      01411 ;;      line = 7129 result AOP_REG=r0x1054, size=2, left -=-, size=0, right AOP_DIR=_Current_Temp, size=
                            1
                      01412 ;; >>> /home/sdcc-builder/build/sdcc-build/orig/sdcc/src/pic14/gen.c:7298:genCast
                      01413 ;;      1009
                      01414 ;;      1028  _Current_Temp   offset=0
                      01415 ;;105   MOVF    _Current_Temp,W
                      01416 ;; >>> /home/sdcc-builder/build/sdcc-build/orig/sdcc/src/pic14/gen.c:7299:genCast
                      01417 ;;      1109 rIdx = r0x1054 
                      01418 ;; ***  addSign  861
                      01419 ;;; /home/sdcc-builder/build/sdcc-build/orig/sdcc/src/pic14/genarith.c:862:addSign *{*
                      01420 ;; >>> /home/sdcc-builder/build/sdcc-build/orig/sdcc/src/pic14/genarith.c:881:addSign
                      01421 ;;      1109 rIdx = r0x1055 
0108   01??           01422         CLRF    r0x1011
                      01423 ;;; /home/sdcc-builder/build/sdcc-build/orig/sdcc/src/pic14/gen.c:2316:resultRemat *{*
                      01424 ;;; /home/sdcc-builder/build/sdcc-build/orig/sdcc/src/pic14/gen.c:3619:genCmpEq *{*
                      01425 ;; ***  genCmpEq  3620
                      01426 ;; ifx is non-null
                      01427 ;;      694 register type nRegs=2
                      01428 ;;      694 register type nRegs=2
                      01429 ;;      line = 3631 result AOP_CRY=0x00, size=0, left AOP_REG=r0x1052, size=2, right AOP_REG=r0x1054, si
                            ze=2
                      01430 ;; ***  mov2w  1381  offset=0
                      01431 ;; >>> /home/sdcc-builder/build/sdcc-build/orig/sdcc/src/pic14/gen.c:1386:mov2w
                      01432 ;;      1109 rIdx = r0x1054 
                      01433 ;;104   MOVF    r0x1010,W
0109   ???? ????      01434         BANKSEL _Current_Temp
010B   08??           01435         MOVF    _Current_Temp,W
010C   ???? ????      01436         BANKSEL r0x1010
010E   00??           01437         MOVWF   r0x1010
                      01438 ;; >>> /home/sdcc-builder/build/sdcc-build/orig/sdcc/src/pic14/gen.c:3703:genCmpEq
                      01439 ;;      1109 rIdx = r0x1052 
010F   06??           01440         XORWF   r0x100E,W
                      01441 ;; >>> /home/sdcc-builder/build/sdcc-build/orig/sdcc/src/pic14/gen.c:3705:genCmpEq
0110   1D03           01442         BTFSS   STATUS,2
                      01443 ;; >>> /home/sdcc-builder/build/sdcc-build/orig/sdcc/src/pic14/gen.c:3708:genCmpEq
                      01444 ;; ***  popGetLabel  key=36, label offset 51
0111   2???           01445         GOTO    _00187_DS_
                      01446 ;; ***  mov2w  1381  offset=1
                      01447 ;; >>> /home/sdcc-builder/build/sdcc-build/orig/sdcc/src/pic14/gen.c:1386:mov2w
                      01448 ;;      1109 rIdx = r0x1055 
0112   08??           01449         MOVF    r0x1011,W
                      01450 ;; >>> /home/sdcc-builder/build/sdcc-build/orig/sdcc/src/pic14/gen.c:3703:genCmpEq
                      01451 ;;      1109 rIdx = r0x1053 
                      01452         .line   156; "WH.c"     Heat_SetState(Heat_Res,HEAT_OFF);
0113   06??           01453         XORWF   r0x100F,W
0114   1903           01454         BTFSC   STATUS,2
0115   2???           01455         GOTO    _00155_DS_
0116                  01456 _00187_DS_
0116   3000           01457         MOVLW   0x00
0117   00??           01458         MOVWF   STK00
                      01459 ;;; /home/sdcc-builder/build/sdcc-build/orig/sdcc/src/pic14/gen.c:1343:mov2w_op *{*
                      01460 ;; >>> /home/sdcc-builder/build/sdcc-build/orig/sdcc/src/pic14/gen.c:1361:mov2w_op
0118   3000           01461         MOVLW   0x00
gpasm-1.4.0 #1106 (Oct  6 2014) obj\Debug\WH.   7-7-2020  18:11:58          PAGE 29


LOC    OBJECT CODE    LINE  SOURCE TEXT
  VALUE

                      01462 ;; >>> /home/sdcc-builder/build/sdcc-build/orig/sdcc/src/pic14/gen.c:2173:genCall
0119   ???? ????      01463         PAGESEL _Heat_SetState
                      01464 ;; >>> /home/sdcc-builder/build/sdcc-build/orig/sdcc/src/pic14/gen.c:2175:genCall
011B   2???           01465         CALL    _Heat_SetState
                      01466 ;; >>> /home/sdcc-builder/build/sdcc-build/orig/sdcc/src/pic14/gen.c:2181:genCall
011C   ???? ????      01467         PAGESEL $
                      01468 ;;; /home/sdcc-builder/build/sdcc-build/orig/sdcc/src/pic14/gen.c:1845:unsaveRegisters *{*
                      01469 ;; ***  unsaveRegisters  1847
                      01470 ;;; /home/sdcc-builder/build/sdcc-build/orig/sdcc/src/pic14/gen.c:2316:resultRemat *{*
                      01471 ;;; /home/sdcc-builder/build/sdcc-build/orig/sdcc/src/pic14/gen.c:2316:resultRemat *{*
                      01472 ;;; /home/sdcc-builder/build/sdcc-build/orig/sdcc/src/pic14/gen.c:2316:resultRemat *{*
                      01473 ;;; /home/sdcc-builder/build/sdcc-build/orig/sdcc/src/pic14/gen.c:2086:genCall *{*
                      01474 ;; ***  genCall  2088
                      01475 ;;; /home/sdcc-builder/build/sdcc-build/orig/sdcc/src/pic14/gen.c:1801:saveRegisters *{*
                      01476 ;; ***  saveRegisters  1803
                      01477 ;;      2135 left AOP_LIT
                      01478 ;;; /home/sdcc-builder/build/sdcc-build/orig/sdcc/src/pic14/gen.c:1343:mov2w_op *{*
                      01479 ;; >>> /home/sdcc-builder/build/sdcc-build/orig/sdcc/src/pic14/gen.c:1361:mov2w_op
                      01480         .line   157; "WH.c"     Cool_SetState(COOL_FAN,COOL_ON);
011E   3001           01481         MOVLW   0x01
                      01482 ;;      2135 left AOP_LIT
                      01483 ;; >>> /home/sdcc-builder/build/sdcc-build/orig/sdcc/src/pic14/gen.c:2143:genCall
                      01484 ;; ***  popRegFromIdx,1042  , rIdx=0x7f
011F   00??           01485         MOVWF   STK00
                      01486 ;;; /home/sdcc-builder/build/sdcc-build/orig/sdcc/src/pic14/gen.c:1343:mov2w_op *{*
                      01487 ;; >>> /home/sdcc-builder/build/sdcc-build/orig/sdcc/src/pic14/gen.c:1361:mov2w_op
0120   3000           01488         MOVLW   0x00
                      01489 ;; >>> /home/sdcc-builder/build/sdcc-build/orig/sdcc/src/pic14/gen.c:2173:genCall
0121   ???? ????      01490         PAGESEL _Cool_SetState
                      01491 ;; >>> /home/sdcc-builder/build/sdcc-build/orig/sdcc/src/pic14/gen.c:2175:genCall
0123   2???           01492         CALL    _Cool_SetState
                      01493 ;; >>> /home/sdcc-builder/build/sdcc-build/orig/sdcc/src/pic14/gen.c:2181:genCall
0124   ???? ????      01494         PAGESEL $
                      01495 ;;; /home/sdcc-builder/build/sdcc-build/orig/sdcc/src/pic14/gen.c:1845:unsaveRegisters *{*
                      01496 ;; ***  unsaveRegisters  1847
                      01497 ;;; /home/sdcc-builder/build/sdcc-build/orig/sdcc/src/pic14/gen.c:2316:resultRemat *{*
                      01498 ;;; /home/sdcc-builder/build/sdcc-build/orig/sdcc/src/pic14/gen.c:2760:genLabel *{*
                      01499 ;; ***  genLabel  2763
                      01500 ;;; /home/sdcc-builder/build/sdcc-build/orig/sdcc/src/pic14/gen.c:2316:resultRemat *{*
                      01501 ;;; /home/sdcc-builder/build/sdcc-build/orig/sdcc/src/pic14/gen.c:2086:genCall *{*
                      01502 ;; ***  genCall  2088
                      01503 ;;; /home/sdcc-builder/build/sdcc-build/orig/sdcc/src/pic14/gen.c:1801:saveRegisters *{*
                      01504 ;; ***  saveRegisters  1803
                      01505 ;; >>> /home/sdcc-builder/build/sdcc-build/orig/sdcc/src/pic14/gen.c:2173:genCall
0126                  01506 _00155_DS_
                      01507         .line   164; "WH.c"     if(TempS_AvgReadings() <= Current_Temp - 5)
0126   ???? ????      01508         PAGESEL _TempS_AvgReadings
                      01509 ;; >>> /home/sdcc-builder/build/sdcc-build/orig/sdcc/src/pic14/gen.c:2175:genCall
0128   2???           01510         CALL    _TempS_AvgReadings
                      01511 ;; >>> /home/sdcc-builder/build/sdcc-build/orig/sdcc/src/pic14/gen.c:2181:genCall
0129   ???? ????      01512         PAGESEL $
                      01513 ;;      694 register type nRegs=2
                      01514 ;;; /home/sdcc-builder/build/sdcc-build/orig/sdcc/src/pic14/gen.c:1907:assignResultValue *{*
gpasm-1.4.0 #1106 (Oct  6 2014) obj\Debug\WH.   7-7-2020  18:11:58          PAGE 30


LOC    OBJECT CODE    LINE  SOURCE TEXT
  VALUE

                      01515 ;; ***  assignResultValue  1909
                      01516 ;;      line = 1911 result -=-, size=0, left AOP_REG=r0x1052, size=2, right -=-, size=0
                      01517 ;; >>> /home/sdcc-builder/build/sdcc-build/orig/sdcc/src/pic14/gen.c:1393:movwf
                      01518 ;;      1109 rIdx = r0x1053 
012B   ???? ????      01519         BANKSEL r0x100F
012D   00??           01520         MOVWF   r0x100F
                      01521 ;; >>> /home/sdcc-builder/build/sdcc-build/orig/sdcc/src/pic14/gen.c:1423:get_returnvalue
                      01522 ;; ***  popRegFromIdx,1042  , rIdx=0x7f
012E   08??           01523         MOVF    STK00,W
                      01524 ;; >>> /home/sdcc-builder/build/sdcc-build/orig/sdcc/src/pic14/gen.c:1393:movwf
                      01525 ;;      1109 rIdx = r0x1052 
012F   00??           01526         MOVWF   r0x100E
                      01527 ;;      2195 left AOP_REG
                      01528 ;;; /home/sdcc-builder/build/sdcc-build/orig/sdcc/src/pic14/gen.c:1845:unsaveRegisters *{*
                      01529 ;; ***  unsaveRegisters  1847
                      01530 ;;; /home/sdcc-builder/build/sdcc-build/orig/sdcc/src/pic14/gen.c:2316:resultRemat *{*
                      01531 ;;; /home/sdcc-builder/build/sdcc-build/orig/sdcc/src/pic14/gen.c:7120:genCast *{*
                      01532 ;; ***  genCast  7121
                      01533 ;; ***  aopForSym 315
                      01534 ;;      327 sym->rname = _Current_Temp, size = 1
                      01535 ;;      694 register type nRegs=2
                      01536 ;;      line = 7129 result AOP_REG=r0x1054, size=2, left -=-, size=0, right AOP_DIR=_Current_Temp, size=
                            1
                      01537 ;; >>> /home/sdcc-builder/build/sdcc-build/orig/sdcc/src/pic14/gen.c:7298:genCast
                      01538 ;;      1009
                      01539 ;;      1028  _Current_Temp   offset=0
0130   ???? ????      01540         BANKSEL _Current_Temp
0132   08??           01541         MOVF    _Current_Temp,W
                      01542 ;; >>> /home/sdcc-builder/build/sdcc-build/orig/sdcc/src/pic14/gen.c:7299:genCast
                      01543 ;;      1109 rIdx = r0x1054 
0133   ???? ????      01544         BANKSEL r0x1010
0135   00??           01545         MOVWF   r0x1010
                      01546 ;; ***  addSign  861
                      01547 ;;; /home/sdcc-builder/build/sdcc-build/orig/sdcc/src/pic14/genarith.c:862:addSign *{*
                      01548 ;; >>> /home/sdcc-builder/build/sdcc-build/orig/sdcc/src/pic14/genarith.c:881:addSign
                      01549 ;;      1109 rIdx = r0x1055 
0136   01??           01550         CLRF    r0x1011
                      01551 ;;; /home/sdcc-builder/build/sdcc-build/orig/sdcc/src/pic14/gen.c:2316:resultRemat *{*
                      01552 ;;; /home/sdcc-builder/build/sdcc-build/orig/sdcc/src/pic14/gen.c:7317:genDjnz *{*
                      01553 ;; ***  genDjnz  7318
                      01554 ;;; /home/sdcc-builder/build/sdcc-build/orig/sdcc/src/pic14/genarith.c:896:genMinus *{*
                      01555 ;; ***  genMinus  897
                      01556 ;;      694 register type nRegs=2
                      01557 ;;      694 register type nRegs=2
                      01558 ;;      result AOP_REG, left AOP_REG, right AOP_LIT
                      01559 ;;; /home/sdcc-builder/build/sdcc-build/orig/sdcc/src/pic14/genarith.c:269:genAddLit *{*
                      01560 ;; ***  genAddLit  270
                      01561 ;; hi = ff      genAddLit  383
                      01562 ;; >>> /home/sdcc-builder/build/sdcc-build/orig/sdcc/src/pic14/genarith.c:395:genAddLit
0137   30FB           01563         MOVLW   0xfb
                      01564 ;; >>> /home/sdcc-builder/build/sdcc-build/orig/sdcc/src/pic14/genarith.c:396:genAddLit
                      01565 ;;      1109 rIdx = r0x1054 
0138   07??           01566         ADDWF   r0x1010,F
gpasm-1.4.0 #1106 (Oct  6 2014) obj\Debug\WH.   7-7-2020  18:11:58          PAGE 31


LOC    OBJECT CODE    LINE  SOURCE TEXT
  VALUE

                      01567 ;; >>> /home/sdcc-builder/build/sdcc-build/orig/sdcc/src/pic14/genarith.c:397:genAddLit
0139   1C03           01568         BTFSS   STATUS,0
                      01569 ;; >>> /home/sdcc-builder/build/sdcc-build/orig/sdcc/src/pic14/genarith.c:398:genAddLit
                      01570 ;;      1109 rIdx = r0x1055 
013A   03??           01571         DECF    r0x1011,F
                      01572 ;; ***  addSign  861
                      01573 ;;; /home/sdcc-builder/build/sdcc-build/orig/sdcc/src/pic14/genarith.c:862:addSign *{*
                      01574 ;;; /home/sdcc-builder/build/sdcc-build/orig/sdcc/src/pic14/gen.c:2316:resultRemat *{*
                      01575 ;;; /home/sdcc-builder/build/sdcc-build/orig/sdcc/src/pic14/gen.c:7120:genCast *{*
                      01576 ;; ***  genCast  7121
                      01577 ;;      694 register type nRegs=2
                      01578 ;;      694 register type nRegs=2
                      01579 ;;      line = 7129 result AOP_REG=r0x1056, size=2, left -=-, size=0, right AOP_REG=r0x1054, size=2
                      01580 ;; ***  genCast  7253
                      01581 ;; >>> /home/sdcc-builder/build/sdcc-build/orig/sdcc/src/pic14/gen.c:7277:genCast
                      01582 ;;      1109 rIdx = r0x1054 
013B   08??           01583         MOVF    r0x1010,W
                      01584 ;; >>> /home/sdcc-builder/build/sdcc-build/orig/sdcc/src/pic14/gen.c:7278:genCast
                      01585 ;;      1109 rIdx = r0x1056 
013C   00??           01586         MOVWF   r0x1012
                      01587 ;; >>> /home/sdcc-builder/build/sdcc-build/orig/sdcc/src/pic14/gen.c:7277:genCast
                      01588 ;;      1109 rIdx = r0x1055 
013D   08??           01589         MOVF    r0x1011,W
                      01590 ;; >>> /home/sdcc-builder/build/sdcc-build/orig/sdcc/src/pic14/gen.c:7278:genCast
                      01591 ;;      1109 rIdx = r0x1057 
013E   00??           01592         MOVWF   r0x1013
                      01593 ;;; /home/sdcc-builder/build/sdcc-build/orig/sdcc/src/pic14/gen.c:2316:resultRemat *{*
                      01594 ;;; /home/sdcc-builder/build/sdcc-build/orig/sdcc/src/pic14/gen.c:3547:genCmpGt *{*
                      01595 ;; ***  genCmpGt  3548
                      01596 ;;      694 register type nRegs=2
                      01597 ;;      694 register type nRegs=2
                      01598 ;;; /home/sdcc-builder/build/sdcc-build/orig/sdcc/src/pic14/gen.c:3294:genCmp *{*
                      01599 ;; >>> /home/sdcc-builder/build/sdcc-build/orig/sdcc/src/pic14/gen.c:3269:pic14_mov2w_regOrLit
                      01600 ;;      1109 rIdx = r0x1053 
013F   08??           01601         MOVF    r0x100F,W
                      01602 ;; >>> /home/sdcc-builder/build/sdcc-build/orig/sdcc/src/pic14/gen.c:3432:genCmp
                      01603 ;;      1109 rIdx = r0x1057 
0140   02??           01604         SUBWF   r0x1013,W
                      01605 ;; >>> /home/sdcc-builder/build/sdcc-build/orig/sdcc/src/pic14/gen.c:3477:genCmp
0141   1D03           01606         BTFSS   STATUS,2
                      01607 ;; >>> /home/sdcc-builder/build/sdcc-build/orig/sdcc/src/pic14/gen.c:3478:genCmp
                      01608 ;; ***  popGetLabel  key=37, label offset 51
0142   2???           01609         GOTO    _00188_DS_
                      01610 ;; >>> /home/sdcc-builder/build/sdcc-build/orig/sdcc/src/pic14/gen.c:3269:pic14_mov2w_regOrLit
                      01611 ;;      1109 rIdx = r0x1052 
0143   08??           01612         MOVF    r0x100E,W
                      01613 ;; >>> /home/sdcc-builder/build/sdcc-build/orig/sdcc/src/pic14/gen.c:3480:genCmp
                      01614 ;;      1109 rIdx = r0x1056 
0144   02??           01615         SUBWF   r0x1012,W
                      01616 ;;; /home/sdcc-builder/build/sdcc-build/orig/sdcc/src/pic14/gen.c:3237:genSkipc *{*
                      01617 ;; >>> /home/sdcc-builder/build/sdcc-build/orig/sdcc/src/pic14/gen.c:3244:genSkipc
0145                  01618 _00188_DS_
0145   1C03           01619         BTFSS   STATUS,0
gpasm-1.4.0 #1106 (Oct  6 2014) obj\Debug\WH.   7-7-2020  18:11:58          PAGE 32


LOC    OBJECT CODE    LINE  SOURCE TEXT
  VALUE

                      01620 ;; >>> /home/sdcc-builder/build/sdcc-build/orig/sdcc/src/pic14/gen.c:3246:genSkipc
                      01621 ;; ***  popGetLabel  key=11, label offset 51
0146   2???           01622         GOTO    _00162_DS_
                      01623 ;;genSkipc:3247: created from rifx:027A5DF4
                      01624 ;;; /home/sdcc-builder/build/sdcc-build/orig/sdcc/src/pic14/gen.c:2316:resultRemat *{*
                      01625 ;;; /home/sdcc-builder/build/sdcc-build/orig/sdcc/src/pic14/gen.c:2316:resultRemat *{*
                      01626 ;;; /home/sdcc-builder/build/sdcc-build/orig/sdcc/src/pic14/gen.c:2086:genCall *{*
                      01627 ;; ***  genCall  2088
                      01628 ;;; /home/sdcc-builder/build/sdcc-build/orig/sdcc/src/pic14/gen.c:1801:saveRegisters *{*
                      01629 ;; ***  saveRegisters  1803
                      01630 ;; >>> /home/sdcc-builder/build/sdcc-build/orig/sdcc/src/pic14/gen.c:2173:genCall
                      01631         .line   166; "WH.c"     if( TempS_AvgReadings() != Current_Temp)
0147   ???? ????      01632         PAGESEL _TempS_AvgReadings
                      01633 ;; >>> /home/sdcc-builder/build/sdcc-build/orig/sdcc/src/pic14/gen.c:2175:genCall
0149   2???           01634         CALL    _TempS_AvgReadings
                      01635 ;; >>> /home/sdcc-builder/build/sdcc-build/orig/sdcc/src/pic14/gen.c:2181:genCall
014A   ???? ????      01636         PAGESEL $
                      01637 ;;      694 register type nRegs=2
                      01638 ;;; /home/sdcc-builder/build/sdcc-build/orig/sdcc/src/pic14/gen.c:1907:assignResultValue *{*
                      01639 ;; ***  assignResultValue  1909
                      01640 ;;      line = 1911 result -=-, size=0, left AOP_REG=r0x1052, size=2, right -=-, size=0
                      01641 ;; >>> /home/sdcc-builder/build/sdcc-build/orig/sdcc/src/pic14/gen.c:1393:movwf
                      01642 ;;      1109 rIdx = r0x1053 
014C   ???? ????      01643         BANKSEL r0x100F
014E   00??           01644         MOVWF   r0x100F
                      01645 ;; >>> /home/sdcc-builder/build/sdcc-build/orig/sdcc/src/pic14/gen.c:1423:get_returnvalue
                      01646 ;; ***  popRegFromIdx,1042  , rIdx=0x7f
014F   08??           01647         MOVF    STK00,W
                      01648 ;; >>> /home/sdcc-builder/build/sdcc-build/orig/sdcc/src/pic14/gen.c:1393:movwf
                      01649 ;;      1109 rIdx = r0x1052 
0150   00??           01650         MOVWF   r0x100E
                      01651 ;;      2195 left AOP_REG
                      01652 ;;; /home/sdcc-builder/build/sdcc-build/orig/sdcc/src/pic14/gen.c:1845:unsaveRegisters *{*
                      01653 ;; ***  unsaveRegisters  1847
                      01654 ;;; /home/sdcc-builder/build/sdcc-build/orig/sdcc/src/pic14/gen.c:2316:resultRemat *{*
                      01655 ;;; /home/sdcc-builder/build/sdcc-build/orig/sdcc/src/pic14/gen.c:7120:genCast *{*
                      01656 ;; ***  genCast  7121
                      01657 ;; ***  aopForSym 315
                      01658 ;;      327 sym->rname = _Current_Temp, size = 1
                      01659 ;;      694 register type nRegs=2
                      01660 ;;      line = 7129 result AOP_REG=r0x1054, size=2, left -=-, size=0, right AOP_DIR=_Current_Temp, size=
                            1
                      01661 ;; >>> /home/sdcc-builder/build/sdcc-build/orig/sdcc/src/pic14/gen.c:7298:genCast
                      01662 ;;      1009
                      01663 ;;      1028  _Current_Temp   offset=0
                      01664 ;;103   MOVF    _Current_Temp,W
                      01665 ;; >>> /home/sdcc-builder/build/sdcc-build/orig/sdcc/src/pic14/gen.c:7299:genCast
                      01666 ;;      1109 rIdx = r0x1054 
                      01667 ;; ***  addSign  861
                      01668 ;;; /home/sdcc-builder/build/sdcc-build/orig/sdcc/src/pic14/genarith.c:862:addSign *{*
                      01669 ;; >>> /home/sdcc-builder/build/sdcc-build/orig/sdcc/src/pic14/genarith.c:881:addSign
                      01670 ;;      1109 rIdx = r0x1055 
0151   01??           01671         CLRF    r0x1011
gpasm-1.4.0 #1106 (Oct  6 2014) obj\Debug\WH.   7-7-2020  18:11:58          PAGE 33


LOC    OBJECT CODE    LINE  SOURCE TEXT
  VALUE

                      01672 ;;; /home/sdcc-builder/build/sdcc-build/orig/sdcc/src/pic14/gen.c:2316:resultRemat *{*
                      01673 ;;; /home/sdcc-builder/build/sdcc-build/orig/sdcc/src/pic14/gen.c:3619:genCmpEq *{*
                      01674 ;; ***  genCmpEq  3620
                      01675 ;; ifx is non-null
                      01676 ;;      694 register type nRegs=2
                      01677 ;;      694 register type nRegs=2
                      01678 ;;      line = 3631 result AOP_CRY=0x00, size=0, left AOP_REG=r0x1052, size=2, right AOP_REG=r0x1054, si
                            ze=2
                      01679 ;; ***  mov2w  1381  offset=0
                      01680 ;; >>> /home/sdcc-builder/build/sdcc-build/orig/sdcc/src/pic14/gen.c:1386:mov2w
                      01681 ;;      1109 rIdx = r0x1054 
                      01682 ;;102   MOVF    r0x1010,W
0152   ???? ????      01683         BANKSEL _Current_Temp
0154   08??           01684         MOVF    _Current_Temp,W
0155   ???? ????      01685         BANKSEL r0x1010
0157   00??           01686         MOVWF   r0x1010
                      01687 ;; >>> /home/sdcc-builder/build/sdcc-build/orig/sdcc/src/pic14/gen.c:3703:genCmpEq
                      01688 ;;      1109 rIdx = r0x1052 
0158   06??           01689         XORWF   r0x100E,W
                      01690 ;; >>> /home/sdcc-builder/build/sdcc-build/orig/sdcc/src/pic14/gen.c:3705:genCmpEq
0159   1D03           01691         BTFSS   STATUS,2
                      01692 ;; >>> /home/sdcc-builder/build/sdcc-build/orig/sdcc/src/pic14/gen.c:3708:genCmpEq
                      01693 ;; ***  popGetLabel  key=38, label offset 51
015A   2???           01694         GOTO    _00189_DS_
                      01695 ;; ***  mov2w  1381  offset=1
                      01696 ;; >>> /home/sdcc-builder/build/sdcc-build/orig/sdcc/src/pic14/gen.c:1386:mov2w
                      01697 ;;      1109 rIdx = r0x1055 
015B   08??           01698         MOVF    r0x1011,W
                      01699 ;; >>> /home/sdcc-builder/build/sdcc-build/orig/sdcc/src/pic14/gen.c:3703:genCmpEq
                      01700 ;;      1109 rIdx = r0x1053 
                      01701         .line   169; "WH.c"     Heat_SetState(Heat_Res,HEAT_ON);
015C   06??           01702         XORWF   r0x100F,W
015D   1903           01703         BTFSC   STATUS,2
015E   2???           01704         GOTO    _00162_DS_
015F                  01705 _00189_DS_
015F   3001           01706         MOVLW   0x01
0160   00??           01707         MOVWF   STK00
                      01708 ;;; /home/sdcc-builder/build/sdcc-build/orig/sdcc/src/pic14/gen.c:1343:mov2w_op *{*
                      01709 ;; >>> /home/sdcc-builder/build/sdcc-build/orig/sdcc/src/pic14/gen.c:1361:mov2w_op
0161   3000           01710         MOVLW   0x00
                      01711 ;; >>> /home/sdcc-builder/build/sdcc-build/orig/sdcc/src/pic14/gen.c:2173:genCall
0162   ???? ????      01712         PAGESEL _Heat_SetState
                      01713 ;; >>> /home/sdcc-builder/build/sdcc-build/orig/sdcc/src/pic14/gen.c:2175:genCall
0164   2???           01714         CALL    _Heat_SetState
                      01715 ;; >>> /home/sdcc-builder/build/sdcc-build/orig/sdcc/src/pic14/gen.c:2181:genCall
0165   ???? ????      01716         PAGESEL $
                      01717 ;;; /home/sdcc-builder/build/sdcc-build/orig/sdcc/src/pic14/gen.c:1845:unsaveRegisters *{*
                      01718 ;; ***  unsaveRegisters  1847
                      01719 ;;; /home/sdcc-builder/build/sdcc-build/orig/sdcc/src/pic14/gen.c:2316:resultRemat *{*
                      01720 ;;; /home/sdcc-builder/build/sdcc-build/orig/sdcc/src/pic14/gen.c:2316:resultRemat *{*
                      01721 ;;; /home/sdcc-builder/build/sdcc-build/orig/sdcc/src/pic14/gen.c:2316:resultRemat *{*
                      01722 ;;; /home/sdcc-builder/build/sdcc-build/orig/sdcc/src/pic14/gen.c:2086:genCall *{*
                      01723 ;; ***  genCall  2088
gpasm-1.4.0 #1106 (Oct  6 2014) obj\Debug\WH.   7-7-2020  18:11:58          PAGE 34


LOC    OBJECT CODE    LINE  SOURCE TEXT
  VALUE

                      01724 ;;; /home/sdcc-builder/build/sdcc-build/orig/sdcc/src/pic14/gen.c:1801:saveRegisters *{*
                      01725 ;; ***  saveRegisters  1803
                      01726 ;;      2135 left AOP_LIT
                      01727 ;;; /home/sdcc-builder/build/sdcc-build/orig/sdcc/src/pic14/gen.c:1343:mov2w_op *{*
                      01728 ;; >>> /home/sdcc-builder/build/sdcc-build/orig/sdcc/src/pic14/gen.c:1361:mov2w_op
                      01729         .line   170; "WH.c"     Cool_SetState(COOL_FAN,COOL_OFF);
0167   3000           01730         MOVLW   0x00
                      01731 ;;      2135 left AOP_LIT
                      01732 ;; >>> /home/sdcc-builder/build/sdcc-build/orig/sdcc/src/pic14/gen.c:2143:genCall
                      01733 ;; ***  popRegFromIdx,1042  , rIdx=0x7f
0168   00??           01734         MOVWF   STK00
                      01735 ;;; /home/sdcc-builder/build/sdcc-build/orig/sdcc/src/pic14/gen.c:1343:mov2w_op *{*
                      01736 ;; >>> /home/sdcc-builder/build/sdcc-build/orig/sdcc/src/pic14/gen.c:1361:mov2w_op
0169   3000           01737         MOVLW   0x00
                      01738 ;; >>> /home/sdcc-builder/build/sdcc-build/orig/sdcc/src/pic14/gen.c:2173:genCall
016A   ???? ????      01739         PAGESEL _Cool_SetState
                      01740 ;; >>> /home/sdcc-builder/build/sdcc-build/orig/sdcc/src/pic14/gen.c:2175:genCall
016C   2???           01741         CALL    _Cool_SetState
                      01742 ;; >>> /home/sdcc-builder/build/sdcc-build/orig/sdcc/src/pic14/gen.c:2181:genCall
016D   ???? ????      01743         PAGESEL $
                      01744 ;;; /home/sdcc-builder/build/sdcc-build/orig/sdcc/src/pic14/gen.c:1845:unsaveRegisters *{*
                      01745 ;; ***  unsaveRegisters  1847
                      01746 ;;; /home/sdcc-builder/build/sdcc-build/orig/sdcc/src/pic14/gen.c:2316:resultRemat *{*
                      01747 ;;; /home/sdcc-builder/build/sdcc-build/orig/sdcc/src/pic14/gen.c:2778:genGoto *{*
                      01748 ;; >>> /home/sdcc-builder/build/sdcc-build/orig/sdcc/src/pic14/gen.c:2780:genGoto
                      01749 ;; ***  popGetLabel  key=11, label offset 51
016F   2???           01750         GOTO    _00162_DS_
                      01751 ;;; /home/sdcc-builder/build/sdcc-build/orig/sdcc/src/pic14/gen.c:2316:resultRemat *{*
                      01752 ;;; /home/sdcc-builder/build/sdcc-build/orig/sdcc/src/pic14/gen.c:2760:genLabel *{*
                      01753 ;; ***  genLabel  2763
                      01754 ;;; /home/sdcc-builder/build/sdcc-build/orig/sdcc/src/pic14/gen.c:2316:resultRemat *{*
                      01755 ;;; /home/sdcc-builder/build/sdcc-build/orig/sdcc/src/pic14/gen.c:2316:resultRemat *{*
                      01756 ;;; /home/sdcc-builder/build/sdcc-build/orig/sdcc/src/pic14/gen.c:2316:resultRemat *{*
                      01757 ;;; /home/sdcc-builder/build/sdcc-build/orig/sdcc/src/pic14/gen.c:2086:genCall *{*
                      01758 ;; ***  genCall  2088
                      01759 ;;; /home/sdcc-builder/build/sdcc-build/orig/sdcc/src/pic14/gen.c:1801:saveRegisters *{*
                      01760 ;; ***  saveRegisters  1803
                      01761 ;;      2135 left AOP_LIT
                      01762 ;;; /home/sdcc-builder/build/sdcc-build/orig/sdcc/src/pic14/gen.c:1343:mov2w_op *{*
                      01763 ;; >>> /home/sdcc-builder/build/sdcc-build/orig/sdcc/src/pic14/gen.c:1361:mov2w_op
0170                  01764 _00161_DS_
                      01765         .line   180; "WH.c"     Heat_SetState(Heat_Res,HEAT_OFF);
0170   3000           01766         MOVLW   0x00
                      01767 ;;      2135 left AOP_LIT
                      01768 ;; >>> /home/sdcc-builder/build/sdcc-build/orig/sdcc/src/pic14/gen.c:2143:genCall
                      01769 ;; ***  popRegFromIdx,1042  , rIdx=0x7f
0171   00??           01770         MOVWF   STK00
                      01771 ;;; /home/sdcc-builder/build/sdcc-build/orig/sdcc/src/pic14/gen.c:1343:mov2w_op *{*
                      01772 ;; >>> /home/sdcc-builder/build/sdcc-build/orig/sdcc/src/pic14/gen.c:1361:mov2w_op
0172   3000           01773         MOVLW   0x00
                      01774 ;; >>> /home/sdcc-builder/build/sdcc-build/orig/sdcc/src/pic14/gen.c:2173:genCall
0173   ???? ????      01775         PAGESEL _Heat_SetState
                      01776 ;; >>> /home/sdcc-builder/build/sdcc-build/orig/sdcc/src/pic14/gen.c:2175:genCall
gpasm-1.4.0 #1106 (Oct  6 2014) obj\Debug\WH.   7-7-2020  18:11:58          PAGE 35


LOC    OBJECT CODE    LINE  SOURCE TEXT
  VALUE

0175   2???           01777         CALL    _Heat_SetState
                      01778 ;; >>> /home/sdcc-builder/build/sdcc-build/orig/sdcc/src/pic14/gen.c:2181:genCall
0176   ???? ????      01779         PAGESEL $
                      01780 ;;; /home/sdcc-builder/build/sdcc-build/orig/sdcc/src/pic14/gen.c:1845:unsaveRegisters *{*
                      01781 ;; ***  unsaveRegisters  1847
                      01782 ;;; /home/sdcc-builder/build/sdcc-build/orig/sdcc/src/pic14/gen.c:2316:resultRemat *{*
                      01783 ;;; /home/sdcc-builder/build/sdcc-build/orig/sdcc/src/pic14/gen.c:2316:resultRemat *{*
                      01784 ;;; /home/sdcc-builder/build/sdcc-build/orig/sdcc/src/pic14/gen.c:2316:resultRemat *{*
                      01785 ;;; /home/sdcc-builder/build/sdcc-build/orig/sdcc/src/pic14/gen.c:2086:genCall *{*
                      01786 ;; ***  genCall  2088
                      01787 ;;; /home/sdcc-builder/build/sdcc-build/orig/sdcc/src/pic14/gen.c:1801:saveRegisters *{*
                      01788 ;; ***  saveRegisters  1803
                      01789 ;;      2135 left AOP_LIT
                      01790 ;;; /home/sdcc-builder/build/sdcc-build/orig/sdcc/src/pic14/gen.c:1343:mov2w_op *{*
                      01791 ;; >>> /home/sdcc-builder/build/sdcc-build/orig/sdcc/src/pic14/gen.c:1361:mov2w_op
                      01792         .line   181; "WH.c"     Cool_SetState(COOL_FAN,COOL_OFF);
0178   3000           01793         MOVLW   0x00
                      01794 ;;      2135 left AOP_LIT
                      01795 ;; >>> /home/sdcc-builder/build/sdcc-build/orig/sdcc/src/pic14/gen.c:2143:genCall
                      01796 ;; ***  popRegFromIdx,1042  , rIdx=0x7f
0179   00??           01797         MOVWF   STK00
                      01798 ;;; /home/sdcc-builder/build/sdcc-build/orig/sdcc/src/pic14/gen.c:1343:mov2w_op *{*
                      01799 ;; >>> /home/sdcc-builder/build/sdcc-build/orig/sdcc/src/pic14/gen.c:1361:mov2w_op
017A   3000           01800         MOVLW   0x00
                      01801 ;; >>> /home/sdcc-builder/build/sdcc-build/orig/sdcc/src/pic14/gen.c:2173:genCall
017B   ???? ????      01802         PAGESEL _Cool_SetState
                      01803 ;; >>> /home/sdcc-builder/build/sdcc-build/orig/sdcc/src/pic14/gen.c:2175:genCall
017D   2???           01804         CALL    _Cool_SetState
                      01805 ;; >>> /home/sdcc-builder/build/sdcc-build/orig/sdcc/src/pic14/gen.c:2181:genCall
017E   ???? ????      01806         PAGESEL $
                      01807 ;;; /home/sdcc-builder/build/sdcc-build/orig/sdcc/src/pic14/gen.c:1845:unsaveRegisters *{*
                      01808 ;; ***  unsaveRegisters  1847
                      01809 ;;; /home/sdcc-builder/build/sdcc-build/orig/sdcc/src/pic14/gen.c:2316:resultRemat *{*
                      01810 ;;; /home/sdcc-builder/build/sdcc-build/orig/sdcc/src/pic14/gen.c:2760:genLabel *{*
                      01811 ;; ***  genLabel  2763
                      01812 ;;; /home/sdcc-builder/build/sdcc-build/orig/sdcc/src/pic14/gen.c:2316:resultRemat *{*
                      01813 ;;; /home/sdcc-builder/build/sdcc-build/orig/sdcc/src/pic14/gen.c:2086:genCall *{*
                      01814 ;; ***  genCall  2088
                      01815 ;;; /home/sdcc-builder/build/sdcc-build/orig/sdcc/src/pic14/gen.c:1801:saveRegisters *{*
                      01816 ;; ***  saveRegisters  1803
                      01817 ;; >>> /home/sdcc-builder/build/sdcc-build/orig/sdcc/src/pic14/gen.c:2173:genCall
0180                  01818 _00162_DS_
                      01819         .line   184; "WH.c"     TempS_CLRReadFlag();
0180   ???? ????      01820         PAGESEL _TempS_CLRReadFlag
                      01821 ;; >>> /home/sdcc-builder/build/sdcc-build/orig/sdcc/src/pic14/gen.c:2175:genCall
0182   2???           01822         CALL    _TempS_CLRReadFlag
                      01823 ;; >>> /home/sdcc-builder/build/sdcc-build/orig/sdcc/src/pic14/gen.c:2181:genCall
0183   ???? ????      01824         PAGESEL $
                      01825 ;;; /home/sdcc-builder/build/sdcc-build/orig/sdcc/src/pic14/gen.c:1845:unsaveRegisters *{*
                      01826 ;; ***  unsaveRegisters  1847
                      01827 ;;; /home/sdcc-builder/build/sdcc-build/orig/sdcc/src/pic14/gen.c:2316:resultRemat *{*
                      01828 ;;; /home/sdcc-builder/build/sdcc-build/orig/sdcc/src/pic14/gen.c:2760:genLabel *{*
                      01829 ;; ***  genLabel  2763
gpasm-1.4.0 #1106 (Oct  6 2014) obj\Debug\WH.   7-7-2020  18:11:58          PAGE 36


LOC    OBJECT CODE    LINE  SOURCE TEXT
  VALUE

                      01830 ;;; /home/sdcc-builder/build/sdcc-build/orig/sdcc/src/pic14/gen.c:2316:resultRemat *{*
                      01831 ;;; /home/sdcc-builder/build/sdcc-build/orig/sdcc/src/pic14/gen.c:2528:genEndFunction *{*
                      01832 ;; ***  genEndFunction  2530
0185                  01833 _00165_DS_
0185   0008           01834         RETURN  
                      01835 ; exit point of _WH_Cool_Heat
                      01836 ;;; /home/sdcc-builder/build/sdcc-build/orig/sdcc/src/pic14/gen.c:7426:genpic14Code *{*
                      01837 
                      01838 ;***
                      01839 ;  pBlock Stats: dbName = C
                      01840 ;***
                      01841 ;entry:  _WH_FetchLastTemp      ;Function start
                      01842 ; 2 exit points
                      01843 ;has an exit
                      01844 ;functions called:
                      01845 ;   _EEPROM_Read
                      01846 ;   _EEPROM_Read
                      01847 ;1 compiler assigned register :
                      01848 ;   STK00
                      01849 ;; Starting pCode block
                      01850 ;;; /home/sdcc-builder/build/sdcc-build/orig/sdcc/src/pic14/gen.c:2316:resultRemat *{*
                      01851 ;;; /home/sdcc-builder/build/sdcc-build/orig/sdcc/src/pic14/gen.c:2760:genLabel *{*
                      01852 ;; ***  genLabel  2763
                      01853 ;;; /home/sdcc-builder/build/sdcc-build/orig/sdcc/src/pic14/gen.c:2316:resultRemat *{*
                      01854 ;;; /home/sdcc-builder/build/sdcc-build/orig/sdcc/src/pic14/gen.c:2340:genFunction *{*
                      01855 ;; ***  genFunction  2342 curr label offset=43previous max_key=0 
0186                  01856 _WH_FetchLastTemp       ;Function start
                      01857 ; 2 exit points
                      01858 ;;; /home/sdcc-builder/build/sdcc-build/orig/sdcc/src/pic14/gen.c:2316:resultRemat *{*
                      01859 ;;; /home/sdcc-builder/build/sdcc-build/orig/sdcc/src/pic14/gen.c:2316:resultRemat *{*
                      01860 ;;; /home/sdcc-builder/build/sdcc-build/orig/sdcc/src/pic14/gen.c:2086:genCall *{*
                      01861 ;; ***  genCall  2088
                      01862 ;;; /home/sdcc-builder/build/sdcc-build/orig/sdcc/src/pic14/gen.c:1801:saveRegisters *{*
                      01863 ;; ***  saveRegisters  1803
                      01864 ;;      2135 left AOP_LIT
                      01865 ;;; /home/sdcc-builder/build/sdcc-build/orig/sdcc/src/pic14/gen.c:1343:mov2w_op *{*
                      01866 ;; >>> /home/sdcc-builder/build/sdcc-build/orig/sdcc/src/pic14/gen.c:1361:mov2w_op
                      01867         .line   137; "WH.c"     Value = EEPROM_Read(Address);
0186   3020           01868         MOVLW   0x20
                      01869 ;;      2135 left AOP_LIT
                      01870 ;; >>> /home/sdcc-builder/build/sdcc-build/orig/sdcc/src/pic14/gen.c:2143:genCall
                      01871 ;; ***  popRegFromIdx,1042  , rIdx=0x7f
0187   00??           01872         MOVWF   STK00
                      01873 ;;; /home/sdcc-builder/build/sdcc-build/orig/sdcc/src/pic14/gen.c:1343:mov2w_op *{*
                      01874 ;; >>> /home/sdcc-builder/build/sdcc-build/orig/sdcc/src/pic14/gen.c:1361:mov2w_op
0188   3000           01875         MOVLW   0x00
                      01876 ;; >>> /home/sdcc-builder/build/sdcc-build/orig/sdcc/src/pic14/gen.c:2173:genCall
0189   ???? ????      01877         PAGESEL _EEPROM_Read
                      01878 ;; >>> /home/sdcc-builder/build/sdcc-build/orig/sdcc/src/pic14/gen.c:2175:genCall
018B   2???           01879         CALL    _EEPROM_Read
                      01880 ;; >>> /home/sdcc-builder/build/sdcc-build/orig/sdcc/src/pic14/gen.c:2181:genCall
018C   ???? ????      01881         PAGESEL $
                      01882 ;; ***  aopForSym 315
gpasm-1.4.0 #1106 (Oct  6 2014) obj\Debug\WH.   7-7-2020  18:11:58          PAGE 37


LOC    OBJECT CODE    LINE  SOURCE TEXT
  VALUE

                      01883 ;;      327 sym->rname = _Current_Temp, size = 1
                      01884 ;;; /home/sdcc-builder/build/sdcc-build/orig/sdcc/src/pic14/gen.c:1907:assignResultValue *{*
                      01885 ;; ***  assignResultValue  1909
                      01886 ;;      line = 1911 result -=-, size=0, left AOP_DIR=_Current_Temp, size=1, right -=-, size=0
                      01887 ;; >>> /home/sdcc-builder/build/sdcc-build/orig/sdcc/src/pic14/gen.c:1393:movwf
                      01888 ;;      1009
                      01889 ;;      1028  _Current_Temp   offset=0
018E   ???? ????      01890         BANKSEL _Current_Temp
0190   00??           01891         MOVWF   _Current_Temp
                      01892 ;;      2195 left AOP_DIR
                      01893 ;;; /home/sdcc-builder/build/sdcc-build/orig/sdcc/src/pic14/gen.c:1845:unsaveRegisters *{*
                      01894 ;; ***  unsaveRegisters  1847
                      01895 ;;; /home/sdcc-builder/build/sdcc-build/orig/sdcc/src/pic14/gen.c:2316:resultRemat *{*
                      01896 ;;; /home/sdcc-builder/build/sdcc-build/orig/sdcc/src/pic14/gen.c:2760:genLabel *{*
                      01897 ;; ***  genLabel  2763
                      01898 ;;; /home/sdcc-builder/build/sdcc-build/orig/sdcc/src/pic14/gen.c:2316:resultRemat *{*
                      01899 ;;; /home/sdcc-builder/build/sdcc-build/orig/sdcc/src/pic14/gen.c:2528:genEndFunction *{*
                      01900 ;; ***  genEndFunction  2530
                      01901         .line   138; "WH.c"     Current_Temp = Value;
0191   0008           01902         RETURN  
                      01903 ; exit point of _WH_FetchLastTemp
                      01904 ;;; /home/sdcc-builder/build/sdcc-build/orig/sdcc/src/pic14/gen.c:7426:genpic14Code *{*
                      01905 
                      01906 ;***
                      01907 ;  pBlock Stats: dbName = C
                      01908 ;***
                      01909 ;entry:  _WH_SaveLastTemp       ;Function start
                      01910 ; 2 exit points
                      01911 ;has an exit
                      01912 ;functions called:
                      01913 ;   _EEPROM_Write
                      01914 ;   _EEPROM_Write
                      01915 ;2 compiler assigned registers:
                      01916 ;   STK01
                      01917 ;   STK00
                      01918 ;; Starting pCode block
                      01919 ;;; /home/sdcc-builder/build/sdcc-build/orig/sdcc/src/pic14/gen.c:2316:resultRemat *{*
                      01920 ;;; /home/sdcc-builder/build/sdcc-build/orig/sdcc/src/pic14/gen.c:2760:genLabel *{*
                      01921 ;; ***  genLabel  2763
                      01922 ;;; /home/sdcc-builder/build/sdcc-build/orig/sdcc/src/pic14/gen.c:2316:resultRemat *{*
                      01923 ;;; /home/sdcc-builder/build/sdcc-build/orig/sdcc/src/pic14/gen.c:2340:genFunction *{*
                      01924 ;; ***  genFunction  2342 curr label offset=39previous max_key=0 
0192                  01925 _WH_SaveLastTemp        ;Function start
                      01926 ; 2 exit points
                      01927 ;;; /home/sdcc-builder/build/sdcc-build/orig/sdcc/src/pic14/gen.c:2316:resultRemat *{*
                      01928 ;;; /home/sdcc-builder/build/sdcc-build/orig/sdcc/src/pic14/gen.c:2316:resultRemat *{*
                      01929 ;;; /home/sdcc-builder/build/sdcc-build/orig/sdcc/src/pic14/gen.c:2316:resultRemat *{*
                      01930 ;;; /home/sdcc-builder/build/sdcc-build/orig/sdcc/src/pic14/gen.c:2086:genCall *{*
                      01931 ;; ***  genCall  2088
                      01932 ;;; /home/sdcc-builder/build/sdcc-build/orig/sdcc/src/pic14/gen.c:1801:saveRegisters *{*
                      01933 ;; ***  saveRegisters  1803
                      01934 ;; ***  aopForSym 315
                      01935 ;;      327 sym->rname = _Current_Temp, size = 1
gpasm-1.4.0 #1106 (Oct  6 2014) obj\Debug\WH.   7-7-2020  18:11:58          PAGE 38


LOC    OBJECT CODE    LINE  SOURCE TEXT
  VALUE

                      01936 ;; ***  aopForSym 315
                      01937 ;;      327 sym->rname = _Current_Temp, size = 1
                      01938 ;;      2135 left AOP_DIR
                      01939 ;;; /home/sdcc-builder/build/sdcc-build/orig/sdcc/src/pic14/gen.c:1343:mov2w_op *{*
                      01940 ;; ***  mov2w  1381  offset=0
                      01941 ;; >>> /home/sdcc-builder/build/sdcc-build/orig/sdcc/src/pic14/gen.c:1386:mov2w
                      01942 ;;      1009
                      01943 ;;      1028  _Current_Temp   offset=0
                      01944         .line   126; "WH.c"     EEPROM_Write(Address,Current_Temp);
0192   ???? ????      01945         BANKSEL _Current_Temp
0194   08??           01946         MOVF    _Current_Temp,W
                      01947 ;;      2135 left AOP_LIT
                      01948 ;; >>> /home/sdcc-builder/build/sdcc-build/orig/sdcc/src/pic14/gen.c:2143:genCall
                      01949 ;; ***  popRegFromIdx,1042  , rIdx=0x7e
0195   00??           01950         MOVWF   STK01
                      01951 ;;; /home/sdcc-builder/build/sdcc-build/orig/sdcc/src/pic14/gen.c:1343:mov2w_op *{*
                      01952 ;; >>> /home/sdcc-builder/build/sdcc-build/orig/sdcc/src/pic14/gen.c:1361:mov2w_op
0196   3020           01953         MOVLW   0x20
                      01954 ;;      2135 left AOP_LIT
                      01955 ;; >>> /home/sdcc-builder/build/sdcc-build/orig/sdcc/src/pic14/gen.c:2143:genCall
                      01956 ;; ***  popRegFromIdx,1042  , rIdx=0x7f
0197   00??           01957         MOVWF   STK00
                      01958 ;;; /home/sdcc-builder/build/sdcc-build/orig/sdcc/src/pic14/gen.c:1343:mov2w_op *{*
                      01959 ;; >>> /home/sdcc-builder/build/sdcc-build/orig/sdcc/src/pic14/gen.c:1361:mov2w_op
0198   3000           01960         MOVLW   0x00
                      01961 ;; >>> /home/sdcc-builder/build/sdcc-build/orig/sdcc/src/pic14/gen.c:2173:genCall
0199   ???? ????      01962         PAGESEL _EEPROM_Write
                      01963 ;; >>> /home/sdcc-builder/build/sdcc-build/orig/sdcc/src/pic14/gen.c:2175:genCall
019B   2???           01964         CALL    _EEPROM_Write
                      01965 ;; >>> /home/sdcc-builder/build/sdcc-build/orig/sdcc/src/pic14/gen.c:2181:genCall
019C   ???? ????      01966         PAGESEL $
                      01967 ;;; /home/sdcc-builder/build/sdcc-build/orig/sdcc/src/pic14/gen.c:1845:unsaveRegisters *{*
                      01968 ;; ***  unsaveRegisters  1847
                      01969 ;;; /home/sdcc-builder/build/sdcc-build/orig/sdcc/src/pic14/gen.c:2316:resultRemat *{*
                      01970 ;;; /home/sdcc-builder/build/sdcc-build/orig/sdcc/src/pic14/gen.c:2760:genLabel *{*
                      01971 ;; ***  genLabel  2763
                      01972 ;;; /home/sdcc-builder/build/sdcc-build/orig/sdcc/src/pic14/gen.c:2316:resultRemat *{*
                      01973 ;;; /home/sdcc-builder/build/sdcc-build/orig/sdcc/src/pic14/gen.c:2528:genEndFunction *{*
                      01974 ;; ***  genEndFunction  2530
019E   0008           01975         RETURN  
                      01976 ; exit point of _WH_SaveLastTemp
                      01977 ;;; /home/sdcc-builder/build/sdcc-build/orig/sdcc/src/pic14/gen.c:7426:genpic14Code *{*
                      01978 
                      01979 ;***
                      01980 ;  pBlock Stats: dbName = C
                      01981 ;***
                      01982 ;entry:  _WH_Set_Temp   ;Function start
                      01983 ; 2 exit points
                      01984 ;has an exit
                      01985 ;3 compiler assigned registers:
                      01986 ;   r0x1008
                      01987 ;   STK00
                      01988 ;   r0x1009
gpasm-1.4.0 #1106 (Oct  6 2014) obj\Debug\WH.   7-7-2020  18:11:58          PAGE 39


LOC    OBJECT CODE    LINE  SOURCE TEXT
  VALUE

                      01989 ;; Starting pCode block
                      01990 ;;; /home/sdcc-builder/build/sdcc-build/orig/sdcc/src/pic14/gen.c:2316:resultRemat *{*
                      01991 ;;; /home/sdcc-builder/build/sdcc-build/orig/sdcc/src/pic14/gen.c:2760:genLabel *{*
                      01992 ;; ***  genLabel  2763
                      01993 ;;; /home/sdcc-builder/build/sdcc-build/orig/sdcc/src/pic14/gen.c:2316:resultRemat *{*
                      01994 ;;; /home/sdcc-builder/build/sdcc-build/orig/sdcc/src/pic14/gen.c:2340:genFunction *{*
                      01995 ;; ***  genFunction  2342 curr label offset=16previous max_key=19 
019F                  01996 _WH_Set_Temp    ;Function start
                      01997 ; 2 exit points
                      01998 ;;; /home/sdcc-builder/build/sdcc-build/orig/sdcc/src/pic14/gen.c:2316:resultRemat *{*
                      01999 ;;; /home/sdcc-builder/build/sdcc-build/orig/sdcc/src/pic14/gen.c:7358:genReceive *{*
                      02000 ;; ***  genReceive  7359
                      02001 ;;      694 register type nRegs=2
                      02002 ;;; /home/sdcc-builder/build/sdcc-build/orig/sdcc/src/pic14/gen.c:1907:assignResultValue *{*
                      02003 ;; ***  assignResultValue  1909
                      02004 ;;      line = 1911 result -=-, size=0, left AOP_REG=r0x1050, size=2, right -=-, size=0
                      02005 ;; >>> /home/sdcc-builder/build/sdcc-build/orig/sdcc/src/pic14/gen.c:1393:movwf
                      02006 ;;      1109 rIdx = r0x1051 
                      02007 ;;1     MOVWF   r0x1008
                      02008 ;; >>> /home/sdcc-builder/build/sdcc-build/orig/sdcc/src/pic14/gen.c:1423:get_returnvalue
                      02009 ;; ***  popRegFromIdx,1042  , rIdx=0x7f
                      02010         .line   114; "WH.c"     void WH_Set_Temp(tWord Temp)
019F   08??           02011         MOVF    STK00,W
                      02012 ;; >>> /home/sdcc-builder/build/sdcc-build/orig/sdcc/src/pic14/gen.c:1393:movwf
                      02013 ;;      1109 rIdx = r0x1050 
                      02014 ;;1     MOVWF   r0x1009
                      02015         .line   116; "WH.c"     Current_Temp = Temp;
01A0   ???? ????      02016         BANKSEL _Current_Temp
01A2   00??           02017         MOVWF   _Current_Temp
                      02018 ;;; /home/sdcc-builder/build/sdcc-build/orig/sdcc/src/pic14/gen.c:2316:resultRemat *{*
                      02019 ;;; /home/sdcc-builder/build/sdcc-build/orig/sdcc/src/pic14/gen.c:2760:genLabel *{*
                      02020 ;; ***  genLabel  2763
                      02021 ;;; /home/sdcc-builder/build/sdcc-build/orig/sdcc/src/pic14/gen.c:2316:resultRemat *{*
                      02022 ;;; /home/sdcc-builder/build/sdcc-build/orig/sdcc/src/pic14/gen.c:2528:genEndFunction *{*
                      02023 ;; ***  genEndFunction  2530
01A3   0008           02024         RETURN  
                      02025 ; exit point of _WH_Set_Temp
                      02026 ;;; /home/sdcc-builder/build/sdcc-build/orig/sdcc/src/pic14/gen.c:7426:genpic14Code *{*
                      02027 
                      02028 ;***
                      02029 ;  pBlock Stats: dbName = C
                      02030 ;***
                      02031 ;entry:  _WH_Update     ;Function start
                      02032 ; 2 exit points
                      02033 ;has an exit
                      02034 ;functions called:
                      02035 ;   _WH_SaveLastTemp
                      02036 ;   _WH_TurnON_OFF
                      02037 ;   _WH_CheckChange
                      02038 ;   _WH_Cool_Heat
                      02039 ;   _WH_SaveLastTemp
                      02040 ;   _WH_TurnON_OFF
                      02041 ;   _WH_CheckChange
gpasm-1.4.0 #1106 (Oct  6 2014) obj\Debug\WH.   7-7-2020  18:11:58          PAGE 40


LOC    OBJECT CODE    LINE  SOURCE TEXT
  VALUE

                      02042 ;   _WH_Cool_Heat
                      02043 ;; Starting pCode block
                      02044 ;;; /home/sdcc-builder/build/sdcc-build/orig/sdcc/src/pic14/gen.c:2316:resultRemat *{*
                      02045 ;;; /home/sdcc-builder/build/sdcc-build/orig/sdcc/src/pic14/gen.c:2760:genLabel *{*
                      02046 ;; ***  genLabel  2763
                      02047 ;;; /home/sdcc-builder/build/sdcc-build/orig/sdcc/src/pic14/gen.c:2316:resultRemat *{*
                      02048 ;;; /home/sdcc-builder/build/sdcc-build/orig/sdcc/src/pic14/gen.c:2340:genFunction *{*
                      02049 ;; ***  genFunction  2342 curr label offset=12previous max_key=0 
01A4                  02050 _WH_Update      ;Function start
                      02051 ; 2 exit points
                      02052 ;;; /home/sdcc-builder/build/sdcc-build/orig/sdcc/src/pic14/gen.c:2316:resultRemat *{*
                      02053 ;; ***  genPlus  611
                      02054 ;;; /home/sdcc-builder/build/sdcc-build/orig/sdcc/src/pic14/genarith.c:612:genPlus *{*
                      02055 ;; ***  aopForSym 315
                      02056 ;;      327 sym->rname = _WH_Update_WH_counter_1_70, size = 2
                      02057 ;;      575
                      02058 ;;      line = 618 result AOP_DIR=_WH_Update_WH_counter_1_70, size=2, left AOP_DIR=_WH_Update_WH_counter
                            _1_70, size=2, right AOP_LIT=0x0a, size=2
                      02059 ;;; /home/sdcc-builder/build/sdcc-build/orig/sdcc/src/pic14/genarith.c:142:genPlusIncr *{*
                      02060 ;; ***  genPlusIncr  144
                      02061 ;;      result AOP_DIR, left AOP_DIR, right AOP_LIT
                      02062 ;;      genPlusIncr  156
                      02063 ;;      adding lit to something. size 2
                      02064 ;;; /home/sdcc-builder/build/sdcc-build/orig/sdcc/src/pic14/genarith.c:269:genAddLit *{*
                      02065 ;; ***  genAddLit  270
                      02066 ;; hi = 0       genAddLit  328
                      02067 ;; >>> /home/sdcc-builder/build/sdcc-build/orig/sdcc/src/pic14/genarith.c:344:genAddLit
                      02068         .line   80; "WH.c"      WH_counter += TMR_TICK_MS;
01A4   300A           02069         MOVLW   0x0a
                      02070 ;; >>> /home/sdcc-builder/build/sdcc-build/orig/sdcc/src/pic14/genarith.c:345:genAddLit
                      02071 ;;      1009
                      02072 ;;      1028  _WH_Update_WH_counter_1_70   offset=0
01A5   ???? ????      02073         BANKSEL _WH_Update_WH_counter_1_70
01A7   07??           02074         ADDWF   _WH_Update_WH_counter_1_70,F
                      02075 ;; >>> /home/sdcc-builder/build/sdcc-build/orig/sdcc/src/pic14/genarith.c:346:genAddLit
01A8   1803           02076         BTFSC   STATUS,0
                      02077 ;; >>> /home/sdcc-builder/build/sdcc-build/orig/sdcc/src/pic14/genarith.c:347:genAddLit
                      02078 ;;      1009
                      02079 ;;      1028  _WH_Update_WH_counter_1_70   offset=1
01A9   0A??           02080         INCF    (_WH_Update_WH_counter_1_70 + 1),F
                      02081 ;; ***  addSign  861
                      02082 ;;; /home/sdcc-builder/build/sdcc-build/orig/sdcc/src/pic14/genarith.c:862:addSign *{*
                      02083 ;;; /home/sdcc-builder/build/sdcc-build/orig/sdcc/src/pic14/gen.c:2316:resultRemat *{*
                      02084 ;;; /home/sdcc-builder/build/sdcc-build/orig/sdcc/src/pic14/gen.c:3619:genCmpEq *{*
                      02085 ;; ***  genCmpEq  3620
                      02086 ;; ifx is non-null
                      02087 ;; ***  aopForSym 315
                      02088 ;;      327 sym->rname = _WH_Update_WH_counter_1_70, size = 2
                      02089 ;;      line = 3631 result AOP_CRY=0x00, size=0, left AOP_DIR=_WH_Update_WH_counter_1_70, size=2, right 
                            AOP_LIT=0x14, size=2
                      02090 ;; ***  mov2w  1381  offset=0
                      02091 ;; >>> /home/sdcc-builder/build/sdcc-build/orig/sdcc/src/pic14/gen.c:1386:mov2w
                      02092 ;;      1009
gpasm-1.4.0 #1106 (Oct  6 2014) obj\Debug\WH.   7-7-2020  18:11:58          PAGE 41


LOC    OBJECT CODE    LINE  SOURCE TEXT
  VALUE

                      02093 ;;      1028  _WH_Update_WH_counter_1_70   offset=0
                      02094         .line   82; "WH.c"      if (WH_counter != WH_PERIOD_MS){
01AA   08??           02095         MOVF    _WH_Update_WH_counter_1_70,W
                      02096 ;; >>> /home/sdcc-builder/build/sdcc-build/orig/sdcc/src/pic14/gen.c:3685:genCmpEq
01AB   3A14           02097         XORLW   0x14
                      02098 ;; >>> /home/sdcc-builder/build/sdcc-build/orig/sdcc/src/pic14/gen.c:3687:genCmpEq
01AC   1D03           02099         BTFSS   STATUS,2
                      02100 ;; >>> /home/sdcc-builder/build/sdcc-build/orig/sdcc/src/pic14/gen.c:3690:genCmpEq
                      02101 ;; ***  popGetLabel  key=18, label offset 16
01AD   2???           02102         GOTO    _00134_DS_
                      02103 ;; ***  mov2w  1381  offset=1
                      02104 ;; >>> /home/sdcc-builder/build/sdcc-build/orig/sdcc/src/pic14/gen.c:1386:mov2w
                      02105 ;;      1009
                      02106 ;;      1028  _WH_Update_WH_counter_1_70   offset=1
01AE   08??           02107         MOVF    (_WH_Update_WH_counter_1_70 + 1),W
                      02108 ;; >>> /home/sdcc-builder/build/sdcc-build/orig/sdcc/src/pic14/gen.c:3685:genCmpEq
                      02109         .line   83; "WH.c"      return;
01AF   3A00           02110         XORLW   0x00
                      02111         .line   86; "WH.c"      WH_counter = 0;
01B0   1D03           02112         BTFSS   STATUS,2
01B1                  02113 _00134_DS_
01B1   2???           02114         GOTO    _00123_DS_
01B2   ???? ????      02115         BANKSEL _WH_Update_WH_counter_1_70
01B4   01??           02116         CLRF    _WH_Update_WH_counter_1_70
01B5   01??           02117         CLRF    (_WH_Update_WH_counter_1_70 + 1)
                      02118 ;;; /home/sdcc-builder/build/sdcc-build/orig/sdcc/src/pic14/gen.c:2316:resultRemat *{*
                      02119 ;;; /home/sdcc-builder/build/sdcc-build/orig/sdcc/src/pic14/gen.c:2086:genCall *{*
                      02120 ;; ***  genCall  2088
                      02121 ;;; /home/sdcc-builder/build/sdcc-build/orig/sdcc/src/pic14/gen.c:1801:saveRegisters *{*
                      02122 ;; ***  saveRegisters  1803
                      02123 ;; >>> /home/sdcc-builder/build/sdcc-build/orig/sdcc/src/pic14/gen.c:2175:genCall
                      02124         .line   88; "WH.c"      WH_SaveLastTemp();
01B6   2???           02125         CALL    _WH_SaveLastTemp
                      02126 ;;; /home/sdcc-builder/build/sdcc-build/orig/sdcc/src/pic14/gen.c:1845:unsaveRegisters *{*
                      02127 ;; ***  unsaveRegisters  1847
                      02128 ;;; /home/sdcc-builder/build/sdcc-build/orig/sdcc/src/pic14/gen.c:2316:resultRemat *{*
                      02129 ;;; /home/sdcc-builder/build/sdcc-build/orig/sdcc/src/pic14/gen.c:2086:genCall *{*
                      02130 ;; ***  genCall  2088
                      02131 ;;; /home/sdcc-builder/build/sdcc-build/orig/sdcc/src/pic14/gen.c:1801:saveRegisters *{*
                      02132 ;; ***  saveRegisters  1803
                      02133 ;; >>> /home/sdcc-builder/build/sdcc-build/orig/sdcc/src/pic14/gen.c:2175:genCall
                      02134         .line   90; "WH.c"      WH_TurnON_OFF();
01B7   2???           02135         CALL    _WH_TurnON_OFF
                      02136 ;;; /home/sdcc-builder/build/sdcc-build/orig/sdcc/src/pic14/gen.c:1845:unsaveRegisters *{*
                      02137 ;; ***  unsaveRegisters  1847
                      02138 ;;; /home/sdcc-builder/build/sdcc-build/orig/sdcc/src/pic14/gen.c:2316:resultRemat *{*
                      02139 ;;; /home/sdcc-builder/build/sdcc-build/orig/sdcc/src/pic14/gen.c:2086:genCall *{*
                      02140 ;; ***  genCall  2088
                      02141 ;;; /home/sdcc-builder/build/sdcc-build/orig/sdcc/src/pic14/gen.c:1801:saveRegisters *{*
                      02142 ;; ***  saveRegisters  1803
                      02143 ;; >>> /home/sdcc-builder/build/sdcc-build/orig/sdcc/src/pic14/gen.c:2175:genCall
                      02144         .line   92; "WH.c"      WH_CheckChange();
01B8   2???           02145         CALL    _WH_CheckChange
gpasm-1.4.0 #1106 (Oct  6 2014) obj\Debug\WH.   7-7-2020  18:11:58          PAGE 42


LOC    OBJECT CODE    LINE  SOURCE TEXT
  VALUE

                      02146 ;;; /home/sdcc-builder/build/sdcc-build/orig/sdcc/src/pic14/gen.c:1845:unsaveRegisters *{*
                      02147 ;; ***  unsaveRegisters  1847
                      02148 ;;; /home/sdcc-builder/build/sdcc-build/orig/sdcc/src/pic14/gen.c:2316:resultRemat *{*
                      02149 ;;; /home/sdcc-builder/build/sdcc-build/orig/sdcc/src/pic14/gen.c:2086:genCall *{*
                      02150 ;; ***  genCall  2088
                      02151 ;;; /home/sdcc-builder/build/sdcc-build/orig/sdcc/src/pic14/gen.c:1801:saveRegisters *{*
                      02152 ;; ***  saveRegisters  1803
                      02153 ;; >>> /home/sdcc-builder/build/sdcc-build/orig/sdcc/src/pic14/gen.c:2175:genCall
                      02154         .line   94; "WH.c"      WH_Cool_Heat();
01B9   2???           02155         CALL    _WH_Cool_Heat
                      02156 ;;; /home/sdcc-builder/build/sdcc-build/orig/sdcc/src/pic14/gen.c:1845:unsaveRegisters *{*
                      02157 ;; ***  unsaveRegisters  1847
                      02158 ;;; /home/sdcc-builder/build/sdcc-build/orig/sdcc/src/pic14/gen.c:2316:resultRemat *{*
                      02159 ;;; /home/sdcc-builder/build/sdcc-build/orig/sdcc/src/pic14/gen.c:3619:genCmpEq *{*
                      02160 ;; ***  genCmpEq  3620
                      02161 ;; ifx is non-null
                      02162 ;; ***  aopForSym 315
                      02163 ;;      327 sym->rname = _Settings, size = 1
                      02164 ;;      line = 3631 result AOP_CRY=0x00, size=0, left AOP_DIR=_Settings, size=1, right AOP_LIT=0x01, siz
                            e=1
                      02165 ;; ***  mov2w  1381  offset=0
                      02166 ;; >>> /home/sdcc-builder/build/sdcc-build/orig/sdcc/src/pic14/gen.c:1386:mov2w
                      02167 ;;      1009
                      02168 ;;      1028  _Settings   offset=0
                      02169         .line   96; "WH.c"      if(Settings == WH_SETTING)
01BA   ???? ????      02170         BANKSEL _Settings
01BC   08??           02171         MOVF    _Settings,W
                      02172 ;; >>> /home/sdcc-builder/build/sdcc-build/orig/sdcc/src/pic14/gen.c:3685:genCmpEq
01BD   3A01           02173         XORLW   0x01
                      02174 ;; >>> /home/sdcc-builder/build/sdcc-build/orig/sdcc/src/pic14/gen.c:3687:genCmpEq
01BE   1D03           02175         BTFSS   STATUS,2
                      02176 ;; >>> /home/sdcc-builder/build/sdcc-build/orig/sdcc/src/pic14/gen.c:3690:genCmpEq
                      02177 ;; ***  popGetLabel  key=7, label offset 16
01BF   2???           02178         GOTO    _00123_DS_
                      02179 ;;; /home/sdcc-builder/build/sdcc-build/orig/sdcc/src/pic14/gen.c:2316:resultRemat *{*
                      02180 ;;; /home/sdcc-builder/build/sdcc-build/orig/sdcc/src/pic14/gen.c:2316:resultRemat *{*
                      02181 ;; ***  genPlus  611
                      02182 ;;; /home/sdcc-builder/build/sdcc-build/orig/sdcc/src/pic14/genarith.c:612:genPlus *{*
                      02183 ;; ***  aopForSym 315
                      02184 ;;      327 sym->rname = _WH_Setting_Counter, size = 2
                      02185 ;;      575
                      02186 ;;      line = 618 result AOP_DIR=_WH_Setting_Counter, size=2, left AOP_DIR=_WH_Setting_Counter, size=2,
                             right AOP_LIT=0x14, size=2
                      02187 ;;; /home/sdcc-builder/build/sdcc-build/orig/sdcc/src/pic14/genarith.c:142:genPlusIncr *{*
                      02188 ;; ***  genPlusIncr  144
                      02189 ;;      result AOP_DIR, left AOP_DIR, right AOP_LIT
                      02190 ;;      genPlusIncr  156
                      02191 ;;      adding lit to something. size 2
                      02192 ;;; /home/sdcc-builder/build/sdcc-build/orig/sdcc/src/pic14/genarith.c:269:genAddLit *{*
                      02193 ;; ***  genAddLit  270
                      02194 ;; hi = 0       genAddLit  328
                      02195 ;; >>> /home/sdcc-builder/build/sdcc-build/orig/sdcc/src/pic14/genarith.c:344:genAddLit
                      02196         .line   98; "WH.c"      WH_Setting_Counter += WH_PERIOD_MS;
gpasm-1.4.0 #1106 (Oct  6 2014) obj\Debug\WH.   7-7-2020  18:11:58          PAGE 43


LOC    OBJECT CODE    LINE  SOURCE TEXT
  VALUE

01C0   3014           02197         MOVLW   0x14
                      02198 ;; >>> /home/sdcc-builder/build/sdcc-build/orig/sdcc/src/pic14/genarith.c:345:genAddLit
                      02199 ;;      1009
                      02200 ;;      1028  _WH_Setting_Counter   offset=0
01C1   ???? ????      02201         BANKSEL _WH_Setting_Counter
01C3   07??           02202         ADDWF   _WH_Setting_Counter,F
                      02203 ;; >>> /home/sdcc-builder/build/sdcc-build/orig/sdcc/src/pic14/genarith.c:346:genAddLit
01C4   1803           02204         BTFSC   STATUS,0
                      02205 ;; >>> /home/sdcc-builder/build/sdcc-build/orig/sdcc/src/pic14/genarith.c:347:genAddLit
                      02206 ;;      1009
                      02207 ;;      1028  _WH_Setting_Counter   offset=1
01C5   0A??           02208         INCF    (_WH_Setting_Counter + 1),F
                      02209 ;; ***  addSign  861
                      02210 ;;; /home/sdcc-builder/build/sdcc-build/orig/sdcc/src/pic14/genarith.c:862:addSign *{*
                      02211 ;;; /home/sdcc-builder/build/sdcc-build/orig/sdcc/src/pic14/gen.c:2316:resultRemat *{*
                      02212 ;;; /home/sdcc-builder/build/sdcc-build/orig/sdcc/src/pic14/gen.c:3619:genCmpEq *{*
                      02213 ;; ***  genCmpEq  3620
                      02214 ;; ifx is non-null
                      02215 ;; ***  aopForSym 315
                      02216 ;;      327 sym->rname = _WH_Setting_Counter, size = 2
                      02217 ;;      line = 3631 result AOP_CRY=0x00, size=0, left AOP_DIR=_WH_Setting_Counter, size=2, right AOP_LIT
                            =0x88, size=2
                      02218 ;; ***  mov2w  1381  offset=0
                      02219 ;; >>> /home/sdcc-builder/build/sdcc-build/orig/sdcc/src/pic14/gen.c:1386:mov2w
                      02220 ;;      1009
                      02221 ;;      1028  _WH_Setting_Counter   offset=0
                      02222         .line   99; "WH.c"      if(WH_Setting_Counter != WH_SETTING_PERIOD_MS)
01C6   08??           02223         MOVF    _WH_Setting_Counter,W
                      02224 ;; >>> /home/sdcc-builder/build/sdcc-build/orig/sdcc/src/pic14/gen.c:3685:genCmpEq
01C7   3A88           02225         XORLW   0x88
                      02226 ;; >>> /home/sdcc-builder/build/sdcc-build/orig/sdcc/src/pic14/gen.c:3687:genCmpEq
01C8   1D03           02227         BTFSS   STATUS,2
                      02228 ;; >>> /home/sdcc-builder/build/sdcc-build/orig/sdcc/src/pic14/gen.c:3690:genCmpEq
                      02229 ;; ***  popGetLabel  key=19, label offset 16
01C9   2???           02230         GOTO    _00135_DS_
                      02231 ;; ***  mov2w  1381  offset=1
                      02232 ;; >>> /home/sdcc-builder/build/sdcc-build/orig/sdcc/src/pic14/gen.c:1386:mov2w
                      02233 ;;      1009
                      02234 ;;      1028  _WH_Setting_Counter   offset=1
01CA   08??           02235         MOVF    (_WH_Setting_Counter + 1),W
                      02236 ;; >>> /home/sdcc-builder/build/sdcc-build/orig/sdcc/src/pic14/gen.c:3685:genCmpEq
                      02237         .line   101; "WH.c"     return;
01CB   3A13           02238         XORLW   0x13
                      02239         .line   103; "WH.c"     WH_Setting_Counter = 0;
01CC   1D03           02240         BTFSS   STATUS,2
01CD                  02241 _00135_DS_
01CD   2???           02242         GOTO    _00123_DS_
01CE   ???? ????      02243         BANKSEL _WH_Setting_Counter
01D0   01??           02244         CLRF    _WH_Setting_Counter
01D1   01??           02245         CLRF    (_WH_Setting_Counter + 1)
                      02246 ;;; /home/sdcc-builder/build/sdcc-build/orig/sdcc/src/pic14/gen.c:2316:resultRemat *{*
                      02247 ;;; /home/sdcc-builder/build/sdcc-build/orig/sdcc/src/pic14/gen.c:6927:genAssign *{*
                      02248 ;; ***  genAssign  6928
gpasm-1.4.0 #1106 (Oct  6 2014) obj\Debug\WH.   7-7-2020  18:11:58          PAGE 44


LOC    OBJECT CODE    LINE  SOURCE TEXT
  VALUE

                      02249 ;; ***  aopForSym 315
                      02250 ;;      327 sym->rname = _Settings, size = 1
                      02251 ;;      line = 6937 result AOP_DIR=_Settings, size=1, left -=-, size=0, right AOP_LIT=0x00, size=1
                      02252 ;; ***  genAssign  7023
                      02253 ;; >>> /home/sdcc-builder/build/sdcc-build/orig/sdcc/src/pic14/gen.c:7035:genAssign
                      02254 ;;      1009
                      02255 ;;      1028  _Settings   offset=0
                      02256         .line   105; "WH.c"     Settings = WH_NORMAL;
01D2   ???? ????      02257         BANKSEL _Settings
01D4   01??           02258         CLRF    _Settings
                      02259 ;;; /home/sdcc-builder/build/sdcc-build/orig/sdcc/src/pic14/gen.c:2316:resultRemat *{*
                      02260 ;;; /home/sdcc-builder/build/sdcc-build/orig/sdcc/src/pic14/gen.c:6927:genAssign *{*
                      02261 ;; ***  genAssign  6928
                      02262 ;; ***  aopForSym 315
                      02263 ;;      327 sym->rname = _FirstClick, size = 1
                      02264 ;;      line = 6937 result AOP_DIR=_FirstClick, size=1, left -=-, size=0, right AOP_LIT=0x00, size=1
                      02265 ;; ***  genAssign  7023
                      02266 ;; >>> /home/sdcc-builder/build/sdcc-build/orig/sdcc/src/pic14/gen.c:7035:genAssign
                      02267 ;;      1009
                      02268 ;;      1028  _FirstClick   offset=0
                      02269         .line   107; "WH.c"     FirstClick = 0;
01D5   ???? ????      02270         BANKSEL _FirstClick
01D7   01??           02271         CLRF    _FirstClick
                      02272 ;;; /home/sdcc-builder/build/sdcc-build/orig/sdcc/src/pic14/gen.c:2316:resultRemat *{*
                      02273 ;;; /home/sdcc-builder/build/sdcc-build/orig/sdcc/src/pic14/gen.c:2760:genLabel *{*
                      02274 ;; ***  genLabel  2763
                      02275 ;;; /home/sdcc-builder/build/sdcc-build/orig/sdcc/src/pic14/gen.c:2316:resultRemat *{*
                      02276 ;;; /home/sdcc-builder/build/sdcc-build/orig/sdcc/src/pic14/gen.c:2528:genEndFunction *{*
                      02277 ;; ***  genEndFunction  2530
01D8                  02278 _00123_DS_
01D8   0008           02279         RETURN  
                      02280 ; exit point of _WH_Update
                      02281 ;;; /home/sdcc-builder/build/sdcc-build/orig/sdcc/src/pic14/gen.c:7426:genpic14Code *{*
                      02282 
                      02283 ;***
                      02284 ;  pBlock Stats: dbName = C
                      02285 ;***
                      02286 ;entry:  _WH_GetState   ;Function start
                      02287 ; 2 exit points
                      02288 ;has an exit
                      02289 ;; Starting pCode block
                      02290 ;;; /home/sdcc-builder/build/sdcc-build/orig/sdcc/src/pic14/gen.c:2316:resultRemat *{*
                      02291 ;;; /home/sdcc-builder/build/sdcc-build/orig/sdcc/src/pic14/gen.c:2760:genLabel *{*
                      02292 ;; ***  genLabel  2763
                      02293 ;;; /home/sdcc-builder/build/sdcc-build/orig/sdcc/src/pic14/gen.c:2316:resultRemat *{*
                      02294 ;;; /home/sdcc-builder/build/sdcc-build/orig/sdcc/src/pic14/gen.c:2340:genFunction *{*
                      02295 ;; ***  genFunction  2342 curr label offset=8previous max_key=0 
01D9                  02296 _WH_GetState    ;Function start
                      02297 ; 2 exit points
                      02298 ;;; /home/sdcc-builder/build/sdcc-build/orig/sdcc/src/pic14/gen.c:2316:resultRemat *{*
                      02299 ;;; /home/sdcc-builder/build/sdcc-build/orig/sdcc/src/pic14/gen.c:2683:genRet *{*
                      02300 ;; ***  genRet  2685
                      02301 ;; ***  aopForSym 315
gpasm-1.4.0 #1106 (Oct  6 2014) obj\Debug\WH.   7-7-2020  18:11:58          PAGE 45


LOC    OBJECT CODE    LINE  SOURCE TEXT
  VALUE

                      02302 ;;      327 sym->rname = _WH_State, size = 1
                      02303 ;;; /home/sdcc-builder/build/sdcc-build/orig/sdcc/src/pic14/gen.c:1343:mov2w_op *{*
                      02304 ;; ***  mov2w  1381  offset=0
                      02305 ;; >>> /home/sdcc-builder/build/sdcc-build/orig/sdcc/src/pic14/gen.c:1386:mov2w
                      02306 ;;      1009
                      02307 ;;      1028  _WH_State   offset=0
                      02308         .line   69; "WH.c"      return WH_State;
01D9   ???? ????      02309         BANKSEL _WH_State
01DB   08??           02310         MOVF    _WH_State,W
                      02311 ;;; /home/sdcc-builder/build/sdcc-build/orig/sdcc/src/pic14/gen.c:2316:resultRemat *{*
                      02312 ;;; /home/sdcc-builder/build/sdcc-build/orig/sdcc/src/pic14/gen.c:2760:genLabel *{*
                      02313 ;; ***  genLabel  2763
                      02314 ;;; /home/sdcc-builder/build/sdcc-build/orig/sdcc/src/pic14/gen.c:2316:resultRemat *{*
                      02315 ;;; /home/sdcc-builder/build/sdcc-build/orig/sdcc/src/pic14/gen.c:2528:genEndFunction *{*
                      02316 ;; ***  genEndFunction  2530
01DC   0008           02317         RETURN  
                      02318 ; exit point of _WH_GetState
                      02319 ;;; /home/sdcc-builder/build/sdcc-build/orig/sdcc/src/pic14/gen.c:7426:genpic14Code *{*
                      02320 
                      02321 ;***
                      02322 ;  pBlock Stats: dbName = C
                      02323 ;***
                      02324 ;entry:  _WH_GetTemp    ;Function start
                      02325 ; 2 exit points
                      02326 ;has an exit
                      02327 ;3 compiler assigned registers:
                      02328 ;   r0x1014
                      02329 ;   r0x1015
                      02330 ;   STK00
                      02331 ;; Starting pCode block
                      02332 ;;; /home/sdcc-builder/build/sdcc-build/orig/sdcc/src/pic14/gen.c:2316:resultRemat *{*
                      02333 ;;; /home/sdcc-builder/build/sdcc-build/orig/sdcc/src/pic14/gen.c:2760:genLabel *{*
                      02334 ;; ***  genLabel  2763
                      02335 ;;; /home/sdcc-builder/build/sdcc-build/orig/sdcc/src/pic14/gen.c:2316:resultRemat *{*
                      02336 ;;; /home/sdcc-builder/build/sdcc-build/orig/sdcc/src/pic14/gen.c:2340:genFunction *{*
                      02337 ;; ***  genFunction  2342 curr label offset=4previous max_key=0 
01DD                  02338 _WH_GetTemp     ;Function start
                      02339 ; 2 exit points
                      02340 ;;; /home/sdcc-builder/build/sdcc-build/orig/sdcc/src/pic14/gen.c:2316:resultRemat *{*
                      02341 ;;; /home/sdcc-builder/build/sdcc-build/orig/sdcc/src/pic14/gen.c:7120:genCast *{*
                      02342 ;; ***  genCast  7121
                      02343 ;; ***  aopForSym 315
                      02344 ;;      327 sym->rname = _Current_Temp, size = 1
                      02345 ;;      694 register type nRegs=2
                      02346 ;;      line = 7129 result AOP_REG=r0x104B, size=2, left -=-, size=0, right AOP_DIR=_Current_Temp, size=
                            1
                      02347 ;; >>> /home/sdcc-builder/build/sdcc-build/orig/sdcc/src/pic14/gen.c:7298:genCast
                      02348 ;;      1009
                      02349 ;;      1028  _Current_Temp   offset=0
                      02350 ;;101   MOVF    _Current_Temp,W
                      02351 ;; >>> /home/sdcc-builder/build/sdcc-build/orig/sdcc/src/pic14/gen.c:7299:genCast
                      02352 ;;      1109 rIdx = r0x104B 
                      02353 ;;99    MOVWF   r0x1014
gpasm-1.4.0 #1106 (Oct  6 2014) obj\Debug\WH.   7-7-2020  18:11:58          PAGE 46


LOC    OBJECT CODE    LINE  SOURCE TEXT
  VALUE

                      02354 ;; ***  addSign  861
                      02355 ;;; /home/sdcc-builder/build/sdcc-build/orig/sdcc/src/pic14/genarith.c:862:addSign *{*
                      02356 ;; >>> /home/sdcc-builder/build/sdcc-build/orig/sdcc/src/pic14/genarith.c:881:addSign
                      02357 ;;      1109 rIdx = r0x104C 
                      02358 ;;1     CLRF    r0x1015
                      02359 ;;; /home/sdcc-builder/build/sdcc-build/orig/sdcc/src/pic14/gen.c:2316:resultRemat *{*
                      02360 ;;; /home/sdcc-builder/build/sdcc-build/orig/sdcc/src/pic14/gen.c:2683:genRet *{*
                      02361 ;; ***  genRet  2685
                      02362 ;;      694 register type nRegs=2
                      02363 ;;; /home/sdcc-builder/build/sdcc-build/orig/sdcc/src/pic14/gen.c:1343:mov2w_op *{*
                      02364 ;; ***  mov2w  1381  offset=0
                      02365 ;; >>> /home/sdcc-builder/build/sdcc-build/orig/sdcc/src/pic14/gen.c:1386:mov2w
                      02366 ;;      1109 rIdx = r0x104B 
                      02367 ;;100   MOVF    r0x1014,W
                      02368         .line   61; "WH.c"      return Current_Temp;
01DD   ???? ????      02369         BANKSEL _Current_Temp
01DF   08??           02370         MOVF    _Current_Temp,W
                      02371 ;; >>> /home/sdcc-builder/build/sdcc-build/orig/sdcc/src/pic14/gen.c:1416:pass_argument
                      02372 ;; ***  popRegFromIdx,1042  , rIdx=0x7f
01E0   00??           02373         MOVWF   STK00
                      02374 ;;; /home/sdcc-builder/build/sdcc-build/orig/sdcc/src/pic14/gen.c:1343:mov2w_op *{*
                      02375 ;; ***  mov2w  1381  offset=1
                      02376 ;; >>> /home/sdcc-builder/build/sdcc-build/orig/sdcc/src/pic14/gen.c:1386:mov2w
                      02377 ;;      1109 rIdx = r0x104C 
01E1   3000           02378         MOVLW   0x00
                      02379 ;;; /home/sdcc-builder/build/sdcc-build/orig/sdcc/src/pic14/gen.c:2316:resultRemat *{*
                      02380 ;;; /home/sdcc-builder/build/sdcc-build/orig/sdcc/src/pic14/gen.c:2760:genLabel *{*
                      02381 ;; ***  genLabel  2763
                      02382 ;;; /home/sdcc-builder/build/sdcc-build/orig/sdcc/src/pic14/gen.c:2316:resultRemat *{*
                      02383 ;;; /home/sdcc-builder/build/sdcc-build/orig/sdcc/src/pic14/gen.c:2528:genEndFunction *{*
                      02384 ;; ***  genEndFunction  2530
01E2   0008           02385         RETURN  
                      02386 ; exit point of _WH_GetTemp
                      02387 ;;; /home/sdcc-builder/build/sdcc-build/orig/sdcc/src/pic14/gen.c:7426:genpic14Code *{*
                      02388 
                      02389 ;***
                      02390 ;  pBlock Stats: dbName = C
                      02391 ;***
                      02392 ;entry:  _WH_Init       ;Function start
                      02393 ; 2 exit points
                      02394 ;has an exit
                      02395 ;; Starting pCode block
                      02396 ;;; /home/sdcc-builder/build/sdcc-build/orig/sdcc/src/pic14/gen.c:2316:resultRemat *{*
                      02397 ;;; /home/sdcc-builder/build/sdcc-build/orig/sdcc/src/pic14/gen.c:2760:genLabel *{*
                      02398 ;; ***  genLabel  2763
                      02399 ;;; /home/sdcc-builder/build/sdcc-build/orig/sdcc/src/pic14/gen.c:2316:resultRemat *{*
                      02400 ;;; /home/sdcc-builder/build/sdcc-build/orig/sdcc/src/pic14/gen.c:2340:genFunction *{*
                      02401 ;; ***  genFunction  2342 curr label offset=0previous max_key=0 
01E3                  02402 _WH_Init        ;Function start
                      02403 ; 2 exit points
                      02404 ;;; /home/sdcc-builder/build/sdcc-build/orig/sdcc/src/pic14/gen.c:2316:resultRemat *{*
                      02405 ;;; /home/sdcc-builder/build/sdcc-build/orig/sdcc/src/pic14/gen.c:6927:genAssign *{*
                      02406 ;; ***  genAssign  6928
gpasm-1.4.0 #1106 (Oct  6 2014) obj\Debug\WH.   7-7-2020  18:11:58          PAGE 47


LOC    OBJECT CODE    LINE  SOURCE TEXT
  VALUE

                      02407 ;; ***  aopForSym 315
                      02408 ;;      327 sym->rname = _Current_Temp, size = 1
                      02409 ;;      line = 6937 result AOP_DIR=_Current_Temp, size=1, left -=-, size=0, right AOP_LIT=0x3c, size=1
                      02410 ;; ***  genAssign  7023
                      02411 ;; >>> /home/sdcc-builder/build/sdcc-build/orig/sdcc/src/pic14/gen.c:7030:genAssign
                      02412         .line   49; "WH.c"      Current_Temp = DEF_TEMP;
01E3   303C           02413         MOVLW   0x3c
                      02414 ;; >>> /home/sdcc-builder/build/sdcc-build/orig/sdcc/src/pic14/gen.c:7032:genAssign
                      02415 ;;      1009
                      02416 ;;      1028  _Current_Temp   offset=0
01E4   ???? ????      02417         BANKSEL _Current_Temp
01E6   00??           02418         MOVWF   _Current_Temp
                      02419 ;;; /home/sdcc-builder/build/sdcc-build/orig/sdcc/src/pic14/gen.c:2316:resultRemat *{*
                      02420 ;;; /home/sdcc-builder/build/sdcc-build/orig/sdcc/src/pic14/gen.c:6927:genAssign *{*
                      02421 ;; ***  genAssign  6928
                      02422 ;; ***  aopForSym 315
                      02423 ;;      327 sym->rname = _WH_State, size = 1
                      02424 ;;      line = 6937 result AOP_DIR=_WH_State, size=1, left -=-, size=0, right AOP_LIT=0x00, size=1
                      02425 ;; ***  genAssign  7023
                      02426 ;; >>> /home/sdcc-builder/build/sdcc-build/orig/sdcc/src/pic14/gen.c:7035:genAssign
                      02427 ;;      1009
                      02428 ;;      1028  _WH_State   offset=0
                      02429         .line   51; "WH.c"      WH_State = WH_OFF;
01E7   ???? ????      02430         BANKSEL _WH_State
01E9   01??           02431         CLRF    _WH_State
                      02432 ;;; /home/sdcc-builder/build/sdcc-build/orig/sdcc/src/pic14/gen.c:2316:resultRemat *{*
                      02433 ;;; /home/sdcc-builder/build/sdcc-build/orig/sdcc/src/pic14/gen.c:6927:genAssign *{*
                      02434 ;; ***  genAssign  6928
                      02435 ;; ***  aopForSym 315
                      02436 ;;      327 sym->rname = _Settings, size = 1
                      02437 ;;      line = 6937 result AOP_DIR=_Settings, size=1, left -=-, size=0, right AOP_LIT=0x00, size=1
                      02438 ;; ***  genAssign  7023
                      02439 ;; >>> /home/sdcc-builder/build/sdcc-build/orig/sdcc/src/pic14/gen.c:7035:genAssign
                      02440 ;;      1009
                      02441 ;;      1028  _Settings   offset=0
                      02442         .line   53; "WH.c"      Settings = WH_NORMAL;
01EA   ???? ????      02443         BANKSEL _Settings
01EC   01??           02444         CLRF    _Settings
                      02445 ;;; /home/sdcc-builder/build/sdcc-build/orig/sdcc/src/pic14/gen.c:2316:resultRemat *{*
                      02446 ;;; /home/sdcc-builder/build/sdcc-build/orig/sdcc/src/pic14/gen.c:2760:genLabel *{*
                      02447 ;; ***  genLabel  2763
                      02448 ;;; /home/sdcc-builder/build/sdcc-build/orig/sdcc/src/pic14/gen.c:2316:resultRemat *{*
                      02449 ;;; /home/sdcc-builder/build/sdcc-build/orig/sdcc/src/pic14/gen.c:2528:genEndFunction *{*
                      02450 ;; ***  genEndFunction  2530
01ED   0008           02451         RETURN  
                      02452 ; exit point of _WH_Init
                      02453 ;;; /home/sdcc-builder/build/sdcc-build/orig/sdcc/src/pic14/gen.c:7426:genpic14Code *{*
                      02454 
                      02455 
                      02456 ;       code size estimation:
                      02457 ;         308+   93 =   401 instructions (  988 byte)
                      02458 
                      02459         end
gpasm-1.4.0 #1106 (Oct  6 2014) obj\Debug\WH.   7-7-2020  18:11:58          PAGE 48


SYMBOL TABLE
  LABEL                             VALUE

ACKDT                             00000005
ACKEN                             00000004
ACKSTAT                           00000006
ADCON0                            0000001F
ADCON1                            0000009F
ADCS0                             00000006
ADCS1                             00000007
ADCS2                             00000006
ADDEN                             00000003
ADFM                              00000007
ADIE                              00000006
ADIF                              00000006
ADON                              00000000
ADRESH                            0000001E
ADRESL                            0000009E
BCLIE                             00000003
BCLIF                             00000003
BF                                00000000
BRGH                              00000002
C                                 00000000
C1INV                             00000004
C1OUT                             00000006
C2INV                             00000005
C2OUT                             00000007
CCP1CON                           00000017
CCP1IE                            00000002
CCP1IF                            00000002
CCP1M0                            00000000
CCP1M1                            00000001
CCP1M2                            00000002
CCP1M3                            00000003
CCP1X                             00000005
CCP1Y                             00000004
CCP2CON                           0000001D
CCP2IE                            00000000
CCP2IF                            00000000
CCP2M0                            00000000
CCP2M1                            00000001
CCP2M2                            00000002
CCP2M3                            00000003
CCP2X                             00000005
CCP2Y                             00000004
CCPR1                             00000015
CCPR1H                            00000016
CCPR1L                            00000015
CCPR2                             0000001B
CCPR2H                            0000001C
CCPR2L                            0000001B
CHS0                              00000003
CHS1                              00000004
CHS2                              00000005
CIS                               00000003
CKE                               00000006
gpasm-1.4.0 #1106 (Oct  6 2014) obj\Debug\WH.   7-7-2020  18:11:58          PAGE 49


SYMBOL TABLE
  LABEL                             VALUE 

CKP                               00000004
CM0                               00000000
CM1                               00000001
CM2                               00000002
CMCON                             0000009C
CMIE                              00000006
CMIF                              00000006
CREN                              00000004
CSRC                              00000007
CVR0                              00000000
CVR1                              00000001
CVR2                              00000002
CVR3                              00000003
CVRCON                            0000009D
CVREN                             00000007
CVROE                             00000006
CVRR                              00000005
D                                 00000005
DATA_ADDRESS                      00000005
DC                                00000001
D_A                               00000005
D_NOT_A                           00000005
EEADR                             0000010D
EEADRH                            0000010F
EECON1                            0000018C
EECON2                            0000018D
EEDATA                            0000010C
EEDATH                            0000010E
EEIE                              00000004
EEIF                              00000004
EEPGD                             00000007
F                                 00000001
FERR                              00000002
FSR                               00000004
GCEN                              00000007
GIE                               00000007
GO                                00000002
GO_DONE                           00000002
GO_NOT_DONE                       00000002
I2C_DATA                          00000005
I2C_READ                          00000002
I2C_START                         00000003
I2C_STOP                          00000004
IBF                               00000007
IBOV                              00000005
INDF                              00000000
INTCON                            0000000B
INTE                              00000004
INTEDG                            00000006
INTF                              00000001
IRP                               00000007
NOT_A                             00000005
NOT_ADDRESS                       00000005
gpasm-1.4.0 #1106 (Oct  6 2014) obj\Debug\WH.   7-7-2020  18:11:58          PAGE 50


SYMBOL TABLE
  LABEL                             VALUE 

NOT_BO                            00000000
NOT_BOR                           00000000
NOT_DONE                          00000002
NOT_PD                            00000003
NOT_POR                           00000001
NOT_RBPU                          00000007
NOT_RC8                           00000006
NOT_T1SYNC                        00000002
NOT_TO                            00000004
NOT_TX8                           00000006
NOT_W                             00000002
NOT_WRITE                         00000002
OBF                               00000006
OERR                              00000001
OPTION_REG                        00000081
P                                 00000004
PCFG0                             00000000
PCFG1                             00000001
PCFG2                             00000002
PCFG3                             00000003
PCL                               00000002
PCLATH                            0000000A
PCON                              0000008E
PEIE                              00000006
PEN                               00000002
PIE1                              0000008C
PIE2                              0000008D
PIR1                              0000000C
PIR2                              0000000D
PORTA                             00000005
PORTB                             00000006
PORTC                             00000007
PORTD                             00000008
PORTE                             00000009
PR2                               00000092
PS0                               00000000
PS1                               00000001
PS2                               00000002
PSA                               00000003
PSAVE                             00000000
PSPIE                             00000007
PSPIF                             00000007
PSPMODE                           00000004
R                                 00000002
RA0                               00000000
RA1                               00000001
RA2                               00000002
RA3                               00000003
RA4                               00000004
RA5                               00000005
RB0                               00000000
RB1                               00000001
RB2                               00000002
gpasm-1.4.0 #1106 (Oct  6 2014) obj\Debug\WH.   7-7-2020  18:11:58          PAGE 51


SYMBOL TABLE
  LABEL                             VALUE 

RB3                               00000003
RB4                               00000004
RB5                               00000005
RB6                               00000006
RB7                               00000007
RBIE                              00000003
RBIF                              00000000
RC0                               00000000
RC1                               00000001
RC2                               00000002
RC3                               00000003
RC4                               00000004
RC5                               00000005
RC6                               00000006
RC7                               00000007
RC8_9                             00000006
RC9                               00000006
RCD8                              00000000
RCEN                              00000003
RCIE                              00000005
RCIF                              00000005
RCREG                             0000001A
RCSTA                             00000018
RD                                00000000
RD0                               00000000
RD1                               00000001
RD2                               00000002
RD3                               00000003
RD4                               00000004
RD5                               00000005
RD6                               00000006
RD7                               00000007
RE0                               00000000
RE1                               00000001
RE2                               00000002
READ_WRITE                        00000002
RP0                               00000005
RP1                               00000006
RSEN                              00000001
RX9                               00000006
RX9D                              00000000
R_NOT_W                           00000002
R_W                               00000002
S                                 00000003
SEN                               00000000
SMP                               00000007
SPBRG                             00000099
SPEN                              00000007
SREN                              00000005
SSAVE                             00000000
SSPADD                            00000093
SSPBUF                            00000013
SSPCON                            00000014
gpasm-1.4.0 #1106 (Oct  6 2014) obj\Debug\WH.   7-7-2020  18:11:58          PAGE 52


SYMBOL TABLE
  LABEL                             VALUE 

SSPCON2                           00000091
SSPEN                             00000005
SSPIE                             00000003
SSPIF                             00000003
SSPM0                             00000000
SSPM1                             00000001
SSPM2                             00000002
SSPM3                             00000003
SSPOV                             00000006
SSPSTAT                           00000094
STATUS                            00000003
STK00                             00000000
STK01                             00000000
STK02                             00000000
STK03                             00000000
STK04                             00000000
STK05                             00000000
STK06                             00000000
STK07                             00000000
STK08                             00000000
STK09                             00000000
STK10                             00000000
STK11                             00000000
STK12                             00000000
SYNC                              00000004
T0CS                              00000005
T0IE                              00000005
T0IF                              00000002
T0SE                              00000004
T1CKPS0                           00000004
T1CKPS1                           00000005
T1CON                             00000010
T1INSYNC                          00000002
T1OSCEN                           00000003
T1SYNC                            00000002
T2CKPS0                           00000000
T2CKPS1                           00000001
T2CON                             00000012
TMR0                              00000001
TMR0IE                            00000005
TMR0IF                            00000002
TMR1                              0000000E
TMR1CS                            00000001
TMR1H                             0000000F
TMR1IE                            00000000
TMR1IF                            00000000
TMR1L                             0000000E
TMR1ON                            00000000
TMR2                              00000011
TMR2IE                            00000001
TMR2IF                            00000001
TMR2ON                            00000002
TOUTPS0                           00000003
gpasm-1.4.0 #1106 (Oct  6 2014) obj\Debug\WH.   7-7-2020  18:11:58          PAGE 53


SYMBOL TABLE
  LABEL                             VALUE 

TOUTPS1                           00000004
TOUTPS2                           00000005
TOUTPS3                           00000006
TRISA                             00000085
TRISA0                            00000000
TRISA1                            00000001
TRISA2                            00000002
TRISA3                            00000003
TRISA4                            00000004
TRISA5                            00000005
TRISB                             00000086
TRISB0                            00000000
TRISB1                            00000001
TRISB2                            00000002
TRISB3                            00000003
TRISB4                            00000004
TRISB5                            00000005
TRISB6                            00000006
TRISB7                            00000007
TRISC                             00000087
TRISC0                            00000000
TRISC1                            00000001
TRISC2                            00000002
TRISC3                            00000003
TRISC4                            00000004
TRISC5                            00000005
TRISC6                            00000006
TRISC7                            00000007
TRISD                             00000088
TRISD0                            00000000
TRISD1                            00000001
TRISD2                            00000002
TRISD3                            00000003
TRISD4                            00000004
TRISD5                            00000005
TRISD6                            00000006
TRISD7                            00000007
TRISE                             00000089
TRISE0                            00000000
TRISE1                            00000001
TRISE2                            00000002
TRMT                              00000001
TX8_9                             00000006
TX9                               00000006
TX9D                              00000000
TXD8                              00000000
TXEN                              00000005
TXIE                              00000004
TXIF                              00000004
TXREG                             00000019
TXSTA                             00000098
UA                                00000001
W                                 00000000
gpasm-1.4.0 #1106 (Oct  6 2014) obj\Debug\WH.   7-7-2020  18:11:58          PAGE 54


SYMBOL TABLE
  LABEL                             VALUE 

WCOL                              00000007
WR                                00000001
WREN                              00000002
WRERR                             00000003
WSAVE                             00000000
Z                                 00000002
_00123_DS_                        000001D8
_00134_DS_                        000001B1
_00135_DS_                        000001CD
_00155_DS_                        00000126
_00161_DS_                        00000170
_00162_DS_                        00000180
_00165_DS_                        00000185
_00185_DS_                        000000DE
_00186_DS_                        000000FC
_00187_DS_                        00000116
_00188_DS_                        00000145
_00189_DS_                        0000015F
_00194_DS_                        00000061
_00198_DS_                        0000006E
_00204_DS_                        00000090
_00214_DS_                        000000AC
_00217_DS_                        000000BA
_00258_DS_                        00000035
_00262_DS_                        00000039
_00268_DS_                        00000018
_00270_DS_                        00000023
_00276_DS_                        00000006
_00278_DS_                        0000000A
_ADCON0                           00000000
_ADCON0bits                       00000000
_ADCON1                           00000000
_ADCON1bits                       00000000
_ADRESH                           00000000
_ADRESL                           00000000
_BODEN_OFF                        00003FBF
_BODEN_ON                         00003FFF
_BOREN_OFF                        00003FBF
_BOREN_ON                         00003FFF
_CCP1CON                          00000000
_CCP1CONbits                      00000000
_CCP2CON                          00000000
_CCP2CONbits                      00000000
_CCPR1                            00000000
_CCPR1H                           00000000
_CCPR1L                           00000000
_CCPR2                            00000000
_CCPR2H                           00000000
_CCPR2L                           00000000
_CMCON                            00000000
_CMCONbits                        00000000
_CONFIG                           00002007
_CPD_OFF                          00003FFF
gpasm-1.4.0 #1106 (Oct  6 2014) obj\Debug\WH.   7-7-2020  18:11:58          PAGE 55


SYMBOL TABLE
  LABEL                             VALUE 

_CPD_ON                           00003EFF
_CP_ALL                           00001FFF
_CP_OFF                           00003FFF
_CP_ON                            00001FFF
_CVRCON                           00000000
_CVRCONbits                       00000000
_Cool_GetState                    00000000
_Cool_Init                        00000000
_Cool_SetState                    00000000
_Cool_Update                      00000000
_Current_Temp                     00000008
_DEBUG_OFF                        00003FFF
_DEBUG_ON                         000037FF
_DEVID1                           00002006
_EEADR                            00000000
_EEADRH                           00000000
_EECON1                           00000000
_EECON1bits                       00000000
_EECON2                           00000000
_EEDATA                           00000000
_EEDATH                           00000000
_EEPROM_Read                      00000000
_EEPROM_Write                     00000000
_FOSC_EXTRC                       00003FFF
_FOSC_HS                          00003FFE
_FOSC_LP                          00003FFC
_FOSC_XT                          00003FFD
_FSR                              00000000
_FirstClick                       00000000
_HS_OSC                           00003FFE
_Heat_GetState                    00000000
_Heat_Init                        00000000
_Heat_SetState                    00000000
_Heat_Update                      00000000
_IDLOC0                           00002000
_IDLOC1                           00002001
_IDLOC2                           00002002
_IDLOC3                           00002003
_INDF                             00000000
_INTCON                           00000000
_INTCONbits                       00000000
_LP_OSC                           00003FFC
_LVP_OFF                          00003F7F
_LVP_ON                           00003FFF
_OPTION_REG                       00000000
_OPTION_REGbits                   00000000
_PCL                              00000000
_PCLATH                           00000000
_PCON                             00000000
_PCONbits                         00000000
_PIE1                             00000000
_PIE1bits                         00000000
_PIE2                             00000000
gpasm-1.4.0 #1106 (Oct  6 2014) obj\Debug\WH.   7-7-2020  18:11:58          PAGE 56


SYMBOL TABLE
  LABEL                             VALUE 

_PIE2bits                         00000000
_PIR1                             00000000
_PIR1bits                         00000000
_PIR2                             00000000
_PIR2bits                         00000000
_PORTA                            00000000
_PORTAbits                        00000000
_PORTB                            00000000
_PORTBbits                        00000000
_PORTC                            00000000
_PORTCbits                        00000000
_PORTD                            00000000
_PORTDbits                        00000000
_PORTE                            00000000
_PORTEbits                        00000000
_PR2                              00000000
_PWRTE_OFF                        00003FFF
_PWRTE_ON                         00003FF7
_RCREG                            00000000
_RCSTA                            00000000
_RCSTAbits                        00000000
_RC_OSC                           00003FFF
_SPBRG                            00000000
_SSPADD                           00000000
_SSPBUF                           00000000
_SSPCON                           00000000
_SSPCON2                          00000000
_SSPCON2bits                      00000000
_SSPCONbits                       00000000
_SSPSTAT                          00000000
_SSPSTATbits                      00000000
_STATUS                           00000000
_STATUSbits                       00000000
_SW_GetState                      00000000
_SW_Init                          00000000
_SW_Update                        00000000
_Settings                         00000000
_T1CON                            00000000
_T1CONbits                        00000000
_T2CON                            00000000
_T2CONbits                        00000000
_TMR0                             00000000
_TMR1                             00000000
_TMR1H                            00000000
_TMR1L                            00000000
_TMR2                             00000000
_TMR_CheckOverFlow                00000000
_TMR_Init                         00000000
_TMR_Start                        00000000
_TMR_Stop                         00000000
_TMR_Update                       00000000
_TRISA                            00000000
_TRISAbits                        00000000
gpasm-1.4.0 #1106 (Oct  6 2014) obj\Debug\WH.   7-7-2020  18:11:58          PAGE 57


SYMBOL TABLE
  LABEL                             VALUE 

_TRISB                            00000000
_TRISBbits                        00000000
_TRISC                            00000000
_TRISCbits                        00000000
_TRISD                            00000000
_TRISDbits                        00000000
_TRISE                            00000000
_TRISEbits                        00000000
_TXREG                            00000000
_TXSTA                            00000000
_TXSTAbits                        00000000
_TempS_AvgReadings                00000000
_TempS_CLRReadFlag                00000000
_TempS_GetTemp                    00000000
_TempS_Init                       00000000
_TempS_ReadDone                   00000000
_TempS_Update                     00000000
_WDTE_OFF                         00003FFB
_WDTE_ON                          00003FFF
_WDT_OFF                          00003FFB
_WDT_ON                           00003FFF
_WH_CheckChange                   0000003A
_WH_CheckFirstUse                 0000000B
_WH_Cool_Heat                     000000BB
_WH_FetchLastTemp                 00000186
_WH_GetState                      000001D9
_WH_GetTemp                       000001DD
_WH_Init                          000001E3
_WH_SaveLastTemp                  00000192
_WH_Set_Temp                      0000019F
_WH_Setting_Counter               00000000
_WH_State                         00000009
_WH_TurnON_OFF                    00000024
_WH_Update                        000001A4
_WH_Update_WH_counter_1_70        0000000A
_WH_UsedTemp                      00000000
_WRT_1FOURTH                      00003BFF
_WRT_256                          00003DFF
_WRT_HALF                         000039FF
_WRT_OFF                          00003FFF
_XT_OSC                           00003FFD
__16F877A                         00000001
__CODE_END                        00001FFF
__CODE_START                      00000000
__COMMON_RAM_END                  0000007F
__COMMON_RAM_START                00000070
__EEPROM_END                      000021FF
__EEPROM_START                    00002100
__VECTOR_INT                      00000004
__VECTOR_RESET                    00000000
__itoa                            00000000
__ltoa                            00000000
__print_format                    00000000
gpasm-1.4.0 #1106 (Oct  6 2014) obj\Debug\WH.   7-7-2020  18:11:58          PAGE 58


SYMBOL TABLE
  LABEL                             VALUE 

__uitoa                           00000000
__ultoa                           00000000
_abs                              00000000
_atof                             00000000
_atoi                             00000000
_atol                             00000000
_calloc                           00000000
_code_WH_0011                     00000011
_code_WH_0020                     00000020
_code_WH_0028                     00000028
_code_WH_004D                     0000004D
_code_WH_0059                     00000059
_code_WH_0078                     00000078
_code_WH_0094                     00000094
_code_WH_00BE                     000000BE
_code_WH_00C9                     000000C9
_code_WH_00E1                     000000E1
_code_WH_0101                     00000101
_code_WH_011C                     0000011C
_code_WH_0124                     00000124
_code_WH_0129                     00000129
_code_WH_014A                     0000014A
_code_WH_0165                     00000165
_code_WH_016D                     0000016D
_code_WH_0176                     00000176
_code_WH_017E                     0000017E
_code_WH_0183                     00000183
_code_WH_018C                     0000018C
_code_WH_019C                     0000019C
_free                             00000000
_getchar                          00000000
_gets                             00000000
_labs                             00000000
_malloc                           00000000
_printf                           00000000
_printf_small                     00000000
_putchar                          00000000
_puts                             00000000
_rand                             00000000
_realloc                          00000000
_sprintf                          00000000
_srand                            00000000
_vprintf                          00000000
_vsprintf                         00000000
r0x100C                           00000006
r0x100D                           00000007
r0x100E                           00000000
r0x100F                           00000001
r0x1010                           00000002
r0x1011                           00000003
r0x1012                           00000004
r0x1013                           00000005

gpasm-1.4.0 #1106 (Oct  6 2014) obj\Debug\WH.   7-7-2020  18:11:58          PAGE 59




Errors   :     0
Warnings :     0 reported,     0 suppressed
Messages :     0 reported,     0 suppressed

